(dp0
S'a..martin@enron.com'
p1
(dp2
S'unique'
p3
I229
sS'total'
p4
I230
ssS'ken.rice@enron.com'
p5
(dp6
g3
I9
sg4
I18
ssS'david.haug@enron.com'
p7
(dp8
g3
I8
sg4
I19
ssS'mark.koenig@enron.com'
p9
(dp10
g3
I34
sg4
I61
ssS'ben.glisan@enron.com'
p11
(dp12
g3
I9
sg4
I16
ssS'julia.murray@enron.com'
p13
(dp14
g3
I35
sg4
I45
ssS'jim.piro@enron.com'
p15
(dp16
g3
I16
sg4
I16
ssS'jeff.donahue@enron.com'
p17
(dp18
g3
I20
sg4
I22
ssS'rick.bergsieker@enron.com'
p19
(dp20
g3
I22
sg4
I59
ssS'mark.pickering@enron.com'
p21
(dp22
g3
I61
sg4
I67
ssS'richard.shapiro@enron.com'
p23
(dp24
g3
I589
sg4
I1215
ssS'jeffrey.shankman@enron.com'
p25
(dp26
g3
I1077
sg4
I2681
ssS'vicki.sharp@enron.com'
p27
(dp28
g3
I81
sg4
I136
ssS'michael.brown@enron.com'
p29
(dp30
g3
I18
sg4
I41
ssS'vince.kaminski@enron.com'
p31
(dp32
g3
I4057
sg4
I14368
ssS'robert.hayes@enron.com'
p33
(dp34
g3
I12
sg4
I12
ssS'david.delainey@enron.com'
p35
(dp36
g3
I830
sg4
I3069
ssS'rebecca.mcdonald@enron.com'
p37
(dp38
g3
I5
sg4
I13
ssS'james.derrick@enron.com'
p39
(dp40
g3
I766
sg4
I909
ssS'james.hughes@enron.com'
p41
(dp42
g3
I11
sg4
I34
ssS'jeff.skilling@enron.com'
p43
(dp44
g3
I73
sg4
I108
ssS'rod.hayslett@enron.com'
p45
(dp46
g3
I887
sg4
I1061
ssS'adam.umanoff@enron.com'
p47
(dp48
g3
I18
sg4
I18
ssS'rex.shelby@enron.com'
p49
(dp50
g3
I27
sg4
I39
ssS'rick.buy@enron.com'
p51
(dp52
g3
I600
sg4
I1053
ssS'louise.kitchen@enron.com'
p53
(dp54
g3
I1537
sg4
I1728
ssS'greg.piper@enron.com'
p55
(dp56
g3
I167
sg4
I222
ssS'janet.dietrich@enron.com'
p57
(dp58
g3
I49
sg4
I63
ssS'mark.haedicke@enron.com'
p59
(dp60
g3
I979
sg4
I1941
ssS'jim.fallon@enron.com'
p61
(dp62
g3
I68
sg4
I75
ssS'philippe.bibi@enron.com'
p63
(dp64
g3
I14
sg4
I40
ssS'kevin.hannon@enron.com'
p65
(dp66
g3
I15
sg4
I32
ssS'john.buchanan@enron.com'
p67
(dp68
g3
I123
sg4
I125
ssS'joseph.deffner@enron.com'
p69
(dp70
g3
I70
sg4
I74
ssS'jeffrey.sherrick@enron.com'
p71
(dp72
g3
I11
sg4
I25
ssS'gene.humphrey@enron.com'
p73
(dp74
g3
I9
sg4
I17
ssS'kenneth.lay@enron.com'
p75
(dp76
g3
I32
sg4
I36
ssS'christopher.calger@enron.com'
p77
(dp78
g3
I109
sg4
I144
ssS'richard.lewis@enron.com'
p79
(dp80
g3
I12
sg4
I26
ssS'rob.walls@enron.com'
p81
(dp82
g3
I88
sg4
I146
ssS'mitchell.taylor@enron.com'
p83
(dp84
g3
I6
sg4
I29
ssS'jeffrey.mcmahon@enron.com'
p85
(dp86
g3
I29
sg4
I48
ssS'jay.fitzgerald@enron.com'
p87
(dp88
g3
I8
sg4
I16
ssS'steven.kean@enron.com'
p89
(dp90
g3
I1488
sg4
I6759
ssS'gary.hickerson@enron.com'
p91
(dp92
g3
I16
sg4
I27
ssS'michael.moran@enron.com'
p93
(dp94
g3
I7
sg4
I19
ssS'cindy.olson@enron.com'
p95
(dp96
g3
I30
sg4
I52
ssS'stanley.horton@enron.com'
p97
(dp98
g3
I480
sg4
I1073
ssS'john.sherriff@enron.com'
p99
(dp100
g3
I48
sg4
I92
ssS'marty.sunde@enron.com'
p101
(dp102
g3
I13
sg4
I38
ssS'tracy.foy@enron.com'
p103
(dp104
g3
I5
sg4
I13
ssS's..muller@enron.com'
p105
(dp106
g3
I16
sg4
I16
ssS'wes.colwell@enron.com'
p107
(dp108
g3
I29
sg4
I40
ssS'sanjay.bhatnagar@enron.com'
p109
(dp110
g3
I11
sg4
I29
ssS'mark.frevert@enron.com'
p111
(dp112
g3
I12
sg4
I21
ssS'phillip.allen@enron.com'
p113
(dp114
g3
I641
sg4
I2195
ssS'james.bannantine@enron.com'
p115
(dp116
g3
I8
sg4
I29
ssS'dana.gibbs@enron.com'
p117
(dp118
g3
I6
sg4
I12
ssS'rockford.meyer@enron.com'
p119
(dp120
g3
I13
sg4
I28
ssS'elizabeth.tilney@enron.com'
p121
(dp122
g3
I11
sg4
I19
ssS'keith.dodson@enron.com'
p123
(dp124
g3
I10
sg4
I14
ssS'kevin.garland@enron.com'
p125
(dp126
g3
I26
sg4
I44
ssS'charlene.jackson@enron.com'
p127
(dp128
g3
I19
sg4
I56
ssS'chip.cox@enron.com'
p129
(dp130
g3
I23
sg4
I33
ssS'raymond.bowen@enron.com'
p131
(dp132
g3
I23
sg4
I27
ssS'w.duran@enron.com'
p133
(dp134
g3
I10
sg4
I12
ssS'george.wasaff@enron.com'
p135
(dp136
g3
I17
sg4
I30
ssS'larry.izzo@enron.com'
p137
(dp138
g3
I7
sg4
I19
ssS'dan.leff@enron.com'
p139
(dp140
g3
I37
sg4
I63
ssS'ken.powers@enron.com'
p141
(dp142
g3
I26
sg4
I26
ssS'george.mcclellan@enron.com'
p143
(dp144
g3
I28
sg4
I49
ssS'sally.beck@enron.com'
p145
(dp146
g3
I1632
sg4
I4343
ssS'bill.cordes@enron.com'
p147
(dp148
g3
I5
sg4
I12
ssS'paula.rieker@enron.com'
p149
(dp150
g3
I77
sg4
I82
ssS'terence.thorn@enron.com'
p151
(dp152
g3
I9
sg4
I41
ssS'jeremy.blachman@enron.com'
p153
(dp154
g3
I12
sg4
I14
ssS'kulvinder.fowler@enron.com'
p155
(dp156
g3
I35
sg4
I36
ssS'brian.redmond@enron.com'
p157
(dp158
g3
I173
sg4
I221
ssS'john.lavorato@enron.com'
p159
(dp160
g3
I1190
sg4
I2585
ssS'richard.causey@enron.com'
p161
(dp162
g3
I26
sg4
I49
ssS'rebecca.carter@enron.com'
p163
(dp164
g3
I11
sg4
I15
ssS'mark.metts@enron.com'
p165
(dp166
g3
I20
sg4
I29
ssS'tim.belden@enron.com'
p167
(dp168
g3
I356
sg4
I484
ssS'mike.mcconnell@enron.com'
p169
(dp170
g3
I825
sg4
I2742
ssS'greg.whalley@enron.com'
p171
(dp172
g3
I201
sg4
I556
ssS'danny.mccarty@enron.com'
p173
(dp174
g3
I213
sg4
I215
ss.