(lp0
(dp1
S'24'
p2
I2
sS'25'
p3
I1
sS'13'
p4
I1
sS'12'
p5
I1
sS'15'
p6
I1
sS'14'
p7
I1
sS'17'
p8
I1
sS'16'
p9
I1
sS'19'
p10
I1
sS'18'
p11
I1
sS'23'
p12
I1
sS'29'
p13
I1
sS'0'
p14
I6
sS'20'
p15
I1
sa(dp16
S'30'
p17
I6
sS'46'
p18
I1
sS'32'
p19
I2
sS'44'
p20
I2
sS'45'
p21
I2
sS'42'
p22
I4
sS'3'
p23
I2
sa(dp24
S'58'
p25
I1
sS'49'
p26
I5
sS'55'
p27
I1
sS'54'
p28
I1
sS'57'
p29
I1
sS'56'
p30
I1
sS'50'
p31
I1
sS'53'
p32
I1
sS'52'
p33
I1
sa(dp34
S'91'
p35
I13
sS'102'
p36
I1
sS'103'
p37
I1
sS'105'
p38
I1
sS'96'
p39
I1
sa(dp40
S'120'
p41
I1
sS'118'
p42
I1
sS'115'
p43
I1
sS'114'
p44
I1
sS'109'
p45
I5
sS'111'
p46
I2
sS'112'
p47
I2
sS'119'
p48
I1
sS'107'
p49
I3
sa(dp50
S'931'
p51
I1
sS'894'
p52
I6
sS'906'
p53
I1
sS'306'
p54
I57
sS'172'
p55
I3
sS'936'
p56
I1
sS'932'
p57
I1
sS'933'
p58
I1
sS'887'
p59
I1
sS'188'
p60
I4
sS'189'
p61
I5
sS'806'
p62
I1
sa(dp63
S'959'
p64
I1
sS'958'
p65
I1
sS'962'
p66
I1
sS'948'
p67
I1
sS'949'
p68
I1
sS'951'
p69
I3
sS'947'
p70
I1
sS'944'
p71
I2
sS'952'
p72
I1
sS'955'
p73
I2
sS'943'
p74
I6
sS'940'
p75
I1
sS'941'
p76
I1
sS'939'
p77
I8
sS'938'
p78
I1
sS'957'
p79
I1
sS'954'
p80
I1
sS'950'
p81
I1
sS'956'
p82
I1
sS'937'
p83
I6
sS'953'
p84
I1
sa(dp85
S'983'
p86
I1
sS'980'
p87
I1
sS'981'
p88
I3
sS'986'
p89
I1
sS'984'
p90
I3
sS'985'
p91
I2
sS'974'
p92
I1
sS'973'
p93
I1
sS'972'
p94
I11
sS'970'
p95
I3
sS'979'
p96
I5
sS'978'
p97
I1
sS'995'
p98
I1
sS'994'
p99
I3
sS'996'
p100
I3
sS'991'
p101
I3
sS'990'
p102
I2
sS'993'
p103
I3
sS'992'
p104
I3
sS'965'
p105
I4
sS'966'
p106
I2
sS'967'
p107
I2
sS'963'
p108
I1
sS'969'
p109
I1
sa(dp110
S'1003'
p111
I1
sS'999'
p112
I1
sS'998'
p113
I8
sS'1001'
p114
I1
sS'1002'
p115
I1
sa(dp116
S'1017'
p117
I1
sS'1021'
p118
I2
sS'1020'
p119
I2
sS'1023'
p120
I1
sS'1006'
p121
I6
sS'1005'
p122
I2
sS'1004'
p123
I3
sS'1013'
p124
I2
sa(dp125
S'1025'
p126
I3
sS'1027'
p127
I2
sS'1029'
p128
I2
sS'1028'
p129
I2
sa(dp130
S'1043'
p131
I1
sS'1042'
p132
I1
sS'1041'
p133
I1
sS'1040'
p134
I1
sS'1045'
p135
I1
sS'1051'
p136
I1
sS'1049'
p137
I1
sS'1050'
p138
I1
sS'1052'
p139
I1
sS'1038'
p140
I2
sS'1039'
p141
I1
sS'1031'
p142
I2
sS'1035'
p143
I10
sa(dp144
S'1128'
p145
I1
sS'1129'
p146
I1
sS'1140'
p147
I1
sS'1141'
p148
I1
sS'1146'
p149
I1
sS'1144'
p150
I1
sS'1143'
p151
I1
sS'1121'
p152
I1
sS'1122'
p153
I1
sS'1089'
p154
I4
sS'1142'
p155
I1
sS'1151'
p156
I1
sS'1054'
p157
I4
sS'1055'
p158
I11
sS'1056'
p159
I3
sS'1057'
p160
I2
sS'1059'
p161
I1
sS'1145'
p162
I1
sS'1148'
p163
I1
sS'1150'
p164
I1
sS'1139'
p165
I1
sS'1138'
p166
I1
sS'1090'
p167
I3
sS'1091'
p168
I3
sS'1133'
p169
I1
sS'1132'
p170
I1
sS'1131'
p171
I3
sS'1130'
p172
I1
sS'1137'
p173
I1
sS'1136'
p174
I1
sS'1135'
p175
I1
sS'1134'
p176
I1
sS'1126'
p177
I1
sS'1152'
p178
I1
sS'1069'
p179
I1
sS'1061'
p180
I3
sS'1060'
p181
I5
sS'1062'
p182
I4
sS'1065'
p183
I1
sS'1064'
p184
I5
sS'1067'
p185
I3
sS'1102'
p186
I3
sS'1103'
p187
I2
sa(dp188
S'1160'
p189
I1
sS'1207'
p190
I1
sS'1169'
p191
I1
sS'1209'
p192
I1
sS'1199'
p193
I1
sS'1192'
p194
I1
sS'1195'
p195
I1
sS'1196'
p196
I1
sS'1177'
p197
I1
sS'1176'
p198
I1
sS'1175'
p199
I1
sS'1174'
p200
I3
sS'1173'
p201
I1
sS'1172'
p202
I1
sS'1171'
p203
I1
sS'1170'
p204
I1
sS'1154'
p205
I27
sS'1179'
p206
I1
sS'1178'
p207
I1
sS'1182'
p208
I1
sS'1180'
p209
I1
sS'1181'
p210
I1
sS'1210'
p211
I1
sa(dp212
S'1232'
p213
I1
sS'1235'
p214
I1
sS'1224'
p215
I1
sS'1223'
p216
I1
sS'1222'
p217
I1
sS'1221'
p218
I1
sS'1220'
p219
I12
sS'1233'
p220
I12
sS'1238'
p221
I1
sS'1251'
p222
I1
sS'1229'
p223
I39
sS'1250'
p224
I2
sS'1260'
p225
I1
sS'1237'
p226
I1
sS'1247'
p227
I1
sS'1246'
p228
I1
sS'1248'
p229
I1
sS'1259'
p230
I1
sS'1231'
p231
I2
sa(dp232
S'1304'
p233
I1
sS'1305'
p234
I1
sS'1269'
p235
I1
sS'1268'
p236
I1
sS'1300'
p237
I1
sS'1301'
p238
I1
sS'1302'
p239
I1
sS'1303'
p240
I1
sS'1263'
p241
I2
sS'1262'
p242
I1
sS'1267'
p243
I1
sS'1266'
p244
I1
sS'1265'
p245
I1
sS'1264'
p246
I1
sS'1307'
p247
I1
sS'1317'
p248
I1
sS'1316'
p249
I2
sS'1315'
p250
I1
sS'1314'
p251
I1
sS'1313'
p252
I1
sS'1312'
p253
I1
sS'1311'
p254
I1
sS'1310'
p255
I1
sS'1308'
p256
I1
sS'1319'
p257
I1
sS'1309'
p258
I1
sS'1322'
p259
I1
sS'1323'
p260
I1
sS'1320'
p261
I1
sS'1321'
p262
I1
sS'1326'
p263
I1
sS'1327'
p264
I1
sS'1324'
p265
I1
sS'1325'
p266
I1
sS'1328'
p267
I1
sS'1329'
p268
I1
sS'1339'
p269
I1
sS'1338'
p270
I1
sS'1335'
p271
I1
sS'1334'
p272
I1
sS'1337'
p273
I1
sS'1336'
p274
I1
sS'1331'
p275
I1
sS'1330'
p276
I1
sS'1333'
p277
I1
sS'1332'
p278
I1
sS'1306'
p279
I1
sS'1348'
p280
I1
sS'1349'
p281
I1
sS'1340'
p282
I1
sS'1341'
p283
I1
sS'1342'
p284
I1
sS'1343'
p285
I1
sS'1344'
p286
I1
sS'1345'
p287
I1
sS'1346'
p288
I1
sS'1347'
p289
I1
sS'1359'
p290
I2
sS'1358'
p291
I1
sS'1353'
p292
I1
sS'1352'
p293
I1
sS'1351'
p294
I3
sS'1350'
p295
I1
sS'1357'
p296
I1
sS'1355'
p297
I7
sS'1298'
p298
I3
sS'1299'
p299
I1
sS'1292'
p300
I2
sS'1293'
p301
I1
sS'1290'
p302
I1
sS'1291'
p303
I1
sS'1296'
p304
I1
sS'1297'
p305
I1
sS'1294'
p306
I1
sS'1295'
p307
I1
sS'1278'
p308
I1
sS'1279'
p309
I1
sS'1270'
p310
I1
sS'1271'
p311
I1
sS'1272'
p312
I1
sS'1273'
p313
I1
sS'1274'
p314
I2
sS'1275'
p315
I1
sS'1276'
p316
I1
sS'1277'
p317
I1
sS'1318'
p318
I1
sS'1285'
p319
I1
sS'1284'
p320
I1
sS'1287'
p321
I1
sS'1286'
p322
I1
sS'1281'
p323
I1
sS'1280'
p324
I1
sS'1283'
p325
I1
sS'1282'
p326
I1
sS'1289'
p327
I1
sS'1288'
p328
I1
sS'1366'
p329
I1
sS'1367'
p330
I1
sS'1365'
p331
I1
sS'1363'
p332
I1
sS'1360'
p333
I1
sS'1361'
p334
I1
sa(dp335
S'1782'
p336
I2
sS'1497'
p337
I1
sS'1785'
p338
I1
sS'1774'
p339
I2
sS'1611'
p340
I1
sS'1547'
p341
I2
sS'1776'
p342
I1
sS'1413'
p343
I3
sS'1541'
p344
I1
sS'1734'
p345
I1
sS'1549'
p346
I1
sS'1371'
p347
I20
sS'1370'
p348
I61
sS'1373'
p349
I88
sS'1372'
p350
I28
sS'1469'
p351
I2
sS'1374'
p352
I15
sS'1377'
p353
I1205
sS'1376'
p354
I21
sS'1379'
p355
I24
sS'1464'
p356
I1
sS'1467'
p357
I2
sS'1466'
p358
I2
sS'1463'
p359
I1
sS'1693'
p360
I1
sS'1798'
p361
I1
sS'1690'
p362
I1
sS'1793'
p363
I2
sS'1792'
p364
I2
sS'1791'
p365
I2
sS'1523'
p366
I2
sS'1490'
p367
I2
sS'1491'
p368
I1
sS'1492'
p369
I1
sS'1493'
p370
I1
sS'1495'
p371
I2
sS'1496'
p372
I1
sS'1402'
p373
I5
sS'1498'
p374
I3
sS'1403'
p375
I3
sS'1702'
p376
I1
sS'1400'
p377
I2
sS'1704'
p378
I2
sS'1567'
p379
I3
sS'1706'
p380
I1
sS'1556'
p381
I2
sS'1559'
p382
I3
sS'1656'
p383
I1
sS'1392'
p384
I6
sS'1418'
p385
I6
sS'1419'
p386
I2
sS'1388'
p387
I14
sS'1389'
p388
I5
sS'1669'
p389
I1
sS'1668'
p390
I1
sS'1410'
p391
I9
sS'1385'
p392
I2
sS'1412'
p393
I3
sS'1387'
p394
I3
sS'1414'
p395
I3
sS'1415'
p396
I3
sS'1416'
p397
I3
sS'1383'
p398
I28
sS'1483'
p399
I2
sS'1482'
p400
I1
sS'1481'
p401
I1
sS'1480'
p402
I2
sS'1487'
p403
I7
sS'1486'
p404
I1
sS'1485'
p405
I2
sS'1484'
p406
I5
sS'1769'
p407
I2
sS'1711'
p408
I2
sS'1710'
p409
I1
sS'1524'
p410
I3
sS'1525'
p411
I1
sS'1409'
p412
I9
sS'1527'
p413
I1
sS'919'
p414
I5
sS'1399'
p415
I10
sS'1398'
p416
I12
sS'1397'
p417
I3
sS'1396'
p418
I11
sS'1395'
p419
I6
sS'1394'
p420
I17
sS'1407'
p421
I6
sS'1406'
p422
I4
sS'1391'
p423
I2
sS'1390'
p424
I2
sS'1651'
p425
I1
sS'1449'
p426
I1
sS'1588'
p427
I3
sS'1667'
p428
I1
sS'1633'
p429
I1
sS'1666'
p430
I1
sS'1634'
p431
I1
sS'1386'
p432
I2
sS'1770'
p433
I2
sS'1436'
p434
I3
sS'1437'
p435
I1
sS'39'
p436
I5
sS'1435'
p437
I1
sS'1432'
p438
I3
sS'1433'
p439
I2
sS'1430'
p440
I5
sS'1431'
p441
I4
sS'1380'
p442
I27
sS'1637'
p443
I1
sS'1649'
p444
I2
sS'1438'
p445
I2
sS'1381'
p446
I4
sS'1582'
p447
I1
sS'1533'
p448
I1
sS'1382'
p449
I10
sS'1583'
p450
I1
sS'1448'
p451
I1
sS'1417'
p452
I3
sS'1538'
p453
I2
sS'1657'
p454
I1
sS'1405'
p455
I4
sS'1665'
p456
I1
sS'1682'
p457
I4
sS'1421'
p458
I2
sS'1420'
p459
I3
sS'1423'
p460
I2
sS'1422'
p461
I9
sS'1425'
p462
I1
sS'1424'
p463
I1
sS'1427'
p464
I5
sS'1426'
p465
I3
sS'1429'
p466
I15
sS'1428'
p467
I4
sS'1580'
p468
I1
sS'1581'
p469
I1
sS'1586'
p470
I3
sS'1404'
p471
I6
sS'1585'
p472
I4
sS'1503'
p473
I2
sS'1500'
p474
I4
sS'1749'
p475
I1
sS'1375'
p476
I27
sS'1508'
p477
I2
sS'1509'
p478
I1
sS'1468'
p479
I1
sS'1393'
p480
I1
sS'1644'
p481
I2
sS'1434'
p482
I6
sS'1674'
p483
I1
sS'1597'
p484
I3
sS'1591'
p485
I1
sS'1593'
p486
I1
sS'1675'
p487
I2
sS'1641'
p488
I1
sS'1676'
p489
I1
sS'1621'
p490
I1
sS'1677'
p491
I2
sS'1662'
p492
I2
sS'1455'
p493
I1
sS'1456'
p494
I2
sS'1519'
p495
I1
sS'1518'
p496
I1
sS'1452'
p497
I4
sS'1727'
p498
I2
sS'1744'
p499
I1
sS'1510'
p500
I6
sS'1513'
p501
I2
sS'1743'
p502
I2
sS'1725'
p503
I2
sS'1661'
p504
I2
sS'1681'
p505
I1
sS'1618'
p506
I1
sS'1536'
p507
I2
sS'1616'
p508
I1
sS'1660'
p509
I1
sS'1615'
p510
I2
sS'1768'
p511
I2
sS'1610'
p512
I1
sS'1638'
p513
I1
sS'1568'
p514
I3
sS'1446'
p515
I4
sS'1445'
p516
I3
sS'1444'
p517
I2
sS'1692'
p518
I1
sS'1442'
p519
I1
sS'1441'
p520
I3
sS'1440'
p521
I2
sS'1561'
p522
I2
sS'1755'
p523
I1
sS'1754'
p524
I1
sS'1753'
p525
I1
sS'1752'
p526
I1
sS'1566'
p527
I2
sS'1532'
p528
I1
sS'1408'
p529
I5
sS'1609'
p530
I1
sS'1608'
p531
I2
sS'1529'
p532
I1
sS'1766'
p533
I2
sS'1603'
p534
I3
sS'1605'
p535
I2
sS'1604'
p536
I3
sS'1472'
p537
I2
sS'1473'
p538
I2
sS'1470'
p539
I2
sS'1471'
p540
I2
sS'1476'
p541
I2
sS'1477'
p542
I2
sS'1474'
p543
I2
sS'1475'
p544
I2
sS'1573'
p545
I1
sS'1572'
p546
I1
sS'1478'
p547
I2
sS'1479'
p548
I2
sS'1577'
p549
I2
sS'1767'
p550
I2
sS'1575'
p551
I4
sS'1369'
p552
I49
sa(dp553
S'1840'
p554
I3
sS'1160'
p555
I5
sS'1847'
p556
I2
sS'2197'
p557
I1
sS'1961'
p558
I1
sS'1876'
p559
I1
sS'1928'
p560
I1
sS'1908'
p561
I1
sS'1871'
p562
I1
sS'1906'
p563
I1
sS'1907'
p564
I1
sS'1905'
p565
I3
sS'1891'
p566
I1
sS'1900'
p567
I1
sS'1832'
p568
I5
sS'2137'
p569
I1
sS'1830'
p570
I10
sS'1831'
p571
I4
sS'1810'
p572
I5
sS'1837'
p573
I3
sS'1812'
p574
I1
sS'1850'
p575
I5
sS'1851'
p576
I2
sS'1940'
p577
I1
sS'1839'
p578
I13
sS'1818'
p579
I2
sS'1819'
p580
I2
sS'2138'
p581
I1
sS'1970'
p582
I1
sS'2015'
p583
I1
sS'2014'
p584
I1
sS'2013'
p585
I1
sS'1828'
p586
I4
sS'1886'
p587
I2
sS'1808'
p588
I3
sS'1274'
p589
I1
sS'2053'
p590
I1
sS'1864'
p591
I1
sS'2055'
p592
I2
sS'1911'
p593
I1
sS'1910'
p594
I1
sS'1939'
p595
I1
sS'1884'
p596
I1
sS'1811'
p597
I2
sS'2044'
p598
I1
sS'1804'
p599
I902
sS'2012'
p600
I1
sS'1802'
p601
I3
sS'1825'
p602
I2
sS'1824'
p603
I1
sS'1827'
p604
I3
sS'1826'
p605
I2
sS'1821'
p606
I2
sS'1820'
p607
I2
sS'1823'
p608
I1
sS'1822'
p609
I2
sS'2024'
p610
I1
sS'2003'
p611
I2
sS'2001'
p612
I1
sS'1841'
p613
I1
sS'2008'
p614
I1
sS'1570'
p615
I1
sS'2028'
p616
I1
sS'2029'
p617
I1
sa(dp618
S'2200'
p619
I24
sS'2202'
p620
I1
sS'2203'
p621
I1
sS'2214'
p622
I1
sa(dp623
S'2289'
p624
I1
sS'2299'
p625
I2
sS'2276'
p626
I1
sS'2282'
p627
I1
sS'2230'
p628
I1
sS'2224'
p629
I213
sS'2232'
p630
I2
sS'2222'
p631
I1
sS'2296'
p632
I1
sS'2237'
p633
I1
sS'2241'
p634
I1
sS'2293'
p635
I1
sS'2248'
p636
I1
sS'2281'
p637
I1
sS'2247'
p638
I2
sS'2233'
p639
I3
sS'2242'
p640
I1
sS'2250'
p641
I1
sa(dp642
S'2322'
p643
I1
sS'2321'
p644
I2
sS'2313'
p645
I31
sS'2325'
p646
I1
sS'2314'
p647
I3
sa(dp648
S'2524'
p649
I1
sS'2521'
p650
I1
sS'2520'
p651
I1
sS'2488'
p652
I1
sS'2486'
p653
I1
sS'2485'
p654
I1
sS'1946'
p655
I1
sS'2480'
p656
I1
sS'2464'
p657
I1
sS'2466'
p658
I5
sS'2467'
p659
I4
sS'2461'
p660
I1
sS'2462'
p661
I1
sS'2463'
p662
I1
sS'2468'
p663
I2
sS'2469'
p664
I1
sS'2490'
p665
I1
sS'2493'
p666
I1
sS'2492'
p667
I1
sS'2495'
p668
I1
sS'2494'
p669
I1
sS'2497'
p670
I2
sS'2396'
p671
I1
sS'2394'
p672
I1
sS'2395'
p673
I1
sS'2392'
p674
I1
sS'2390'
p675
I1
sS'2416'
p676
I1
sS'2477'
p677
I2
sS'2473'
p678
I3
sS'2472'
p679
I1
sS'2471'
p680
I1
sS'2470'
p681
I3
sS'981'
p682
I10
sS'1125'
p683
I2
sS'2479'
p684
I1
sS'2478'
p685
I3
sS'2381'
p686
I1
sS'2380'
p687
I1
sS'2382'
p688
I1
sS'2385'
p689
I1
sS'2386'
p690
I1
sS'2442'
p691
I3
sS'2440'
p692
I2
sS'2441'
p693
I7
sS'1233'
p694
I20
sS'2391'
p695
I1
sS'2379'
p696
I1
sS'2374'
p697
I4
sS'2376'
p698
I1
sS'2370'
p699
I1
sS'2371'
p700
I1
sS'2373'
p701
I17
sS'2458'
p702
I15
sS'2482'
p703
I1
sS'2369'
p704
I1
sS'2368'
p705
I2
sS'2367'
p706
I1
sS'2366'
p707
I26
sS'2365'
p708
I2
sS'2364'
p709
I2
sS'2363'
p710
I3
sS'2362'
p711
I1
sS'2361'
p712
I2
sS'2360'
p713
I1
sS'167'
p714
I3
sS'2358'
p715
I2
sS'2359'
p716
I4
sS'2518'
p717
I1
sS'2352'
p718
I1
sS'2353'
p719
I2
sS'2350'
p720
I1
sS'2351'
p721
I1
sS'2356'
p722
I2
sS'2357'
p723
I2
sS'2354'
p724
I2
sS'2355'
p725
I3
sS'2439'
p726
I6
sS'2431'
p727
I1
sS'2437'
p728
I5
sS'2345'
p729
I1
sS'2344'
p730
I4
sS'2347'
p731
I11
sS'2346'
p732
I10
sS'2341'
p733
I1
sS'2343'
p734
I18
sS'2342'
p735
I81
sS'2349'
p736
I2
sS'2348'
p737
I2
sS'2502'
p738
I1
sS'2501'
p739
I1
sS'2500'
p740
I1
sa(dp741
S'2546'
p742
I4
sS'2527'
p743
I84
sS'2540'
p744
I1
sS'2600'
p745
I1
sS'2545'
p746
I4
sS'1834'
p747
I2
sS'2541'
p748
I6
sS'2585'
p749
I1
sS'2529'
p750
I1
sS'2528'
p751
I5
sS'2538'
p752
I1
sS'2539'
p753
I1
sS'2601'
p754
I1
sS'2532'
p755
I4
sS'2533'
p756
I11
sS'2530'
p757
I1
sS'2531'
p758
I2
sS'2537'
p759
I1
sS'2535'
p760
I2
sa(dp761
S'2604'
p762
I1
sS'2605'
p763
I1
sS'2347'
p764
I2
sS'2607'
p765
I1
sS'2626'
p766
I1
sS'2624'
p767
I1
sS'2611'
p768
I1
sS'2623'
p769
I1
sS'2615'
p770
I1
sS'2625'
p771
I1
sS'2608'
p772
I1
sS'2606'
p773
I1
sS'2619'
p774
I1
sS'2618'
p775
I1
sS'2614'
p776
I8
sS'2627'
p777
I1
sS'2629'
p778
I1
sS'2620'
p779
I1
sS'2628'
p780
I1
sS'2612'
p781
I1
sa(dp782
S'2644'
p783
I12
sS'2631'
p784
I1
sS'2633'
p785
I1
sS'2632'
p786
I1
sa(dp787
S'2648'
p788
I19
sS'2659'
p789
I1
sS'2658'
p790
I1
sS'2657'
p791
I1
sS'2656'
p792
I2
sS'2655'
p793
I1
sS'2654'
p794
I2
sS'2666'
p795
I1
sS'2664'
p796
I1
sS'2662'
p797
I1
sS'2663'
p798
I1
sS'2660'
p799
I2
sa(dp800
S'2712'
p801
I2
sS'2713'
p802
I2
sS'2710'
p803
I1
sS'2711'
p804
I2
sS'2716'
p805
I1
sS'2717'
p806
I1
sS'2714'
p807
I2
sS'2715'
p808
I1
sS'2770'
p809
I11
sS'2771'
p810
I15
sS'2772'
p811
I10
sS'2845'
p812
I4
sS'2842'
p813
I3
sS'2808'
p814
I1
sS'2816'
p815
I1
sS'2824'
p816
I1
sS'2825'
p817
I1
sS'2868'
p818
I1
sS'2827'
p819
I1
sS'2821'
p820
I1
sS'2823'
p821
I1
sS'2785'
p822
I2
sS'2784'
p823
I18
sS'2781'
p824
I2
sS'2783'
p825
I2
sS'2782'
p826
I2
sS'2865'
p827
I3
sS'2849'
p828
I12
sS'2788'
p829
I3
sS'2861'
p830
I2
sS'2846'
p831
I2
sS'2706'
p832
I2
sS'2688'
p833
I8
sS'2689'
p834
I5
sS'2684'
p835
I3
sS'2685'
p836
I2
sS'2687'
p837
I4
sS'2680'
p838
I4
sS'2681'
p839
I8
sS'2682'
p840
I1
sS'2683'
p841
I4
sS'2814'
p842
I2
sS'2769'
p843
I7
sS'2768'
p844
I8
sS'2723'
p845
I1
sS'2813'
p846
I3
sS'2812'
p847
I2
sS'2850'
p848
I5
sS'2853'
p849
I10
sS'2745'
p850
I5
sS'2701'
p851
I2
sS'2854'
p852
I1
sS'2857'
p853
I3
sS'2702'
p854
I3
sS'2735'
p855
I1
sS'2679'
p856
I258
sS'2844'
p857
I1
sS'2878'
p858
I4
sS'1406'
p859
I1
sS'2892'
p860
I1
sS'2752'
p861
I1
sS'2699'
p862
I4
sS'2751'
p863
I2
sS'2532'
p864
I3
sS'2696'
p865
I10
sS'2695'
p866
I8
sS'2796'
p867
I1
sS'2761'
p868
I1
sS'2691'
p869
I8
sS'2690'
p870
I1
sa(dp871
S'2903'
p872
I1
sS'2902'
p873
I1
sS'2901'
p874
I1
sS'2907'
p875
I1
sS'2906'
p876
I1
sS'2905'
p877
I1
sS'2904'
p878
I1
sS'2921'
p879
I4
sS'2920'
p880
I1
sS'2909'
p881
I1
sS'2908'
p882
I1
sS'2925'
p883
I1
sS'2927'
p884
I1
sS'2926'
p885
I1
sS'2922'
p886
I4
sS'2928'
p887
I1
sS'2923'
p888
I4
sS'2910'
p889
I1
sS'2911'
p890
I1
sS'2912'
p891
I1
sS'2913'
p892
I1
sS'2914'
p893
I1
sS'2915'
p894
I1
sS'2916'
p895
I1
sS'2917'
p896
I1
sS'2918'
p897
I1
sS'2919'
p898
I1
sS'1026'
p899
I2
sS'2899'
p900
I4
sS'2897'
p901
I1
sS'1746'
p902
I1
sa(dp903
S'2929'
p904
I620
sS'2967'
p905
I2
sS'3055'
p906
I3
sS'2932'
p907
I1
sS'3039'
p908
I2
sS'3012'
p909
I1
sS'2982'
p910
I1
sS'3016'
p911
I1
sS'3112'
p912
I1
sS'2930'
p913
I3
sS'3110'
p914
I1
sS'3071'
p915
I1
sS'3060'
p916
I2
sS'3096'
p917
I1
sS'2959'
p918
I1
sS'2678'
p919
I2
sS'3042'
p920
I1
sS'3044'
p921
I1
sa(dp922
S'3144'
p923
I1
sS'3130'
p924
I66
sS'3149'
p925
I1
sS'3148'
p926
I1
sS'3131'
p927
I1
sS'3145'
p928
I1
sa(dp929
S'3219'
p930
I1
sS'3223'
p931
I1
sS'3164'
p932
I1
sS'3222'
p933
I2
sS'3162'
p934
I3
sS'3163'
p935
I2
sS'3160'
p936
I3
sS'3161'
p937
I2
sS'3214'
p938
I1
sS'3158'
p939
I1
sS'3210'
p940
I2
sS'3212'
p941
I1
sS'1772'
p942
I1
sS'3253'
p943
I1
sS'43'
p944
I1
sS'3184'
p945
I1
sS'3185'
p946
I1
sS'3186'
p947
I1
sS'3187'
p948
I1
sS'3180'
p949
I1
sS'3181'
p950
I1
sS'3182'
p951
I1
sS'3183'
p952
I1
sS'3188'
p953
I1
sS'3189'
p954
I1
sS'2490'
p955
I1
sS'3179'
p956
I1
sS'3178'
p957
I1
sS'3170'
p958
I2
sS'3173'
p959
I1
sS'3172'
p960
I1
sS'3175'
p961
I1
sS'3174'
p962
I1
sS'3177'
p963
I1
sS'3176'
p964
I1
sS'3207'
p965
I1
sS'3206'
p966
I1
sS'3205'
p967
I2
sS'3204'
p968
I3
sS'3203'
p969
I1
sS'3202'
p970
I1
sS'3201'
p971
I1
sS'3200'
p972
I1
sS'3159'
p973
I1
sS'3224'
p974
I1
sS'3227'
p975
I1
sS'3213'
p976
I1
sS'3221'
p977
I1
sS'3209'
p978
I1
sS'3208'
p979
I1
sS'3197'
p980
I1
sS'3196'
p981
I1
sS'3195'
p982
I1
sS'3194'
p983
I1
sS'3193'
p984
I1
sS'3192'
p985
I1
sS'3191'
p986
I1
sS'3190'
p987
I1
sS'3225'
p988
I3
sS'3199'
p989
I1
sS'3198'
p990
I1
sa(dp991
S'3261'
p992
I1
sS'3256'
p993
I11
sa(dp994
S'3289'
p995
I2
sS'3288'
p996
I1
sS'3309'
p997
I1
sS'3276'
p998
I2
sS'3277'
p999
I1
sS'3274'
p1000
I1
sS'3275'
p1001
I1
sS'3272'
p1002
I1
sS'3273'
p1003
I1
sS'3308'
p1004
I1
sS'3286'
p1005
I2
sS'3294'
p1006
I1
sS'3295'
p1007
I1
sS'3296'
p1008
I1
sS'3297'
p1009
I1
sS'3290'
p1010
I2
sS'3291'
p1011
I1
sS'3278'
p1012
I1
sS'3279'
p1013
I1
sS'3302'
p1014
I1
sS'3306'
p1015
I1
sS'3303'
p1016
I1
sS'1503'
p1017
I3
sS'3292'
p1018
I1
sS'3293'
p1019
I1
sS'3300'
p1020
I1
sS'3307'
p1021
I1
sS'3263'
p1022
I1
sS'3262'
p1023
I4
sS'3265'
p1024
I1
sS'3264'
p1025
I1
sS'3267'
p1026
I1
sS'3266'
p1027
I1
sS'3269'
p1028
I1
sS'3268'
p1029
I1
sS'3285'
p1030
I1
sS'3284'
p1031
I1
sS'3283'
p1032
I1
sS'3282'
p1033
I1
sS'3281'
p1034
I1
sS'3280'
p1035
I1
sS'3304'
p1036
I1
sS'3271'
p1037
I1
sS'3287'
p1038
I1
sS'3298'
p1039
I2
sS'3299'
p1040
I1
sa(dp1041
S'3319'
p1042
I1
sS'3318'
p1043
I1
sS'3311'
p1044
I7
sS'3313'
p1045
I4
sS'3315'
p1046
I1
sS'3314'
p1047
I4
sS'3317'
p1048
I2
sS'3316'
p1049
I1
sa(dp1050
S'3526'
p1051
I1
sS'1048'
p1052
I1
sS'3520'
p1053
I1
sS'3517'
p1054
I1
sS'3521'
p1055
I1
sS'3545'
p1056
I1
sS'3447'
p1057
I1
sS'3516'
p1058
I1
sS'3543'
p1059
I1
sS'3414'
p1060
I2
sS'3323'
p1061
I1
sS'3324'
p1062
I20
sS'3325'
p1063
I8
sS'3326'
p1064
I11
sS'3327'
p1065
I9
sS'3329'
p1066
I9
sS'3406'
p1067
I1
sS'3418'
p1068
I2
sS'3419'
p1069
I2
sS'3538'
p1070
I1
sS'3439'
p1071
I9
sS'3348'
p1072
I2
sS'3349'
p1073
I12
sS'1056'
p1074
I2
sS'3381'
p1075
I2
sS'3342'
p1076
I513
sS'3512'
p1077
I1
sS'3340'
p1078
I1
sS'3341'
p1079
I1
sS'3434'
p1080
I1
sS'3435'
p1081
I1
sS'3362'
p1082
I1
sS'3514'
p1083
I1
sS'2312'
p1084
I1
sS'3509'
p1085
I1
sS'3524'
p1086
I1
sS'3527'
p1087
I1
sS'3510'
p1088
I1
sS'3513'
p1089
I1
sS'3546'
p1090
I1
sS'3544'
p1091
I1
sS'3475'
p1092
I5
sS'3482'
p1093
I1
sS'3519'
p1094
I1
sS'3533'
p1095
I1
sS'3333'
p1096
I3
sS'3332'
p1097
I2
sS'3331'
p1098
I6
sS'3518'
p1099
I1
sS'3522'
p1100
I1
sS'3350'
p1101
I1
sS'3335'
p1102
I1
sS'3334'
p1103
I14
sS'3542'
p1104
I1
sS'3339'
p1105
I1
sS'3338'
p1106
I1
sS'3359'
p1107
I2
sS'3528'
p1108
I1
sS'3529'
p1109
I1
sS'3508'
p1110
I1
sS'3506'
p1111
I1
sS'3393'
p1112
I1
sS'3430'
p1113
I2
sS'3448'
p1114
I4
sS'3379'
p1115
I2
sS'3396'
p1116
I2
sS'3399'
p1117
I2
sS'3375'
p1118
I7
sS'3374'
p1119
I6
sS'3373'
p1120
I1
sS'3505'
p1121
I1
sS'3371'
p1122
I1
sS'3507'
p1123
I1
sS'3525'
p1124
I1
sS'3364'
p1125
I1
sS'3515'
p1126
I1
sS'3511'
p1127
I1
sS'3366'
p1128
I2
sS'3523'
p1129
I1
sa(dp1130
S'3715'
p1131
I2
sS'3716'
p1132
I2
sS'3926'
p1133
I1
sS'3710'
p1134
I3
sS'3924'
p1135
I1
sS'3712'
p1136
I1
sS'3929'
p1137
I1
sS'3921'
p1138
I1
sS'3799'
p1139
I1
sS'3798'
p1140
I1
sS'3795'
p1141
I1
sS'3794'
p1142
I1
sS'3797'
p1143
I1
sS'3796'
p1144
I1
sS'3790'
p1145
I1
sS'3793'
p1146
I1
sS'2242'
p1147
I9
sS'3760'
p1148
I3
sS'3761'
p1149
I3
sS'3762'
p1150
I2
sS'3763'
p1151
I1
sS'3764'
p1152
I7
sS'3938'
p1153
I1
sS'3766'
p1154
I1
sS'3767'
p1155
I1
sS'3768'
p1156
I1
sS'3769'
p1157
I3
sS'3936'
p1158
I1
sS'3931'
p1159
I1
sS'3800'
p1160
I1
sS'3136'
p1161
I2
sS'3771'
p1162
I1
sS'3775'
p1163
I1
sS'3774'
p1164
I1
sS'3940'
p1165
I1
sS'3941'
p1166
I1
sS'3779'
p1167
I2
sS'3778'
p1168
I2
sS'3944'
p1169
I1
sS'3946'
p1170
I1
sS'115'
p1171
I1
sS'3678'
p1172
I1
sS'3679'
p1173
I95
sS'3812'
p1174
I4
sS'3748'
p1175
I3
sS'3749'
p1176
I3
sS'3747'
p1177
I3
sS'3742'
p1178
I4
sS'3740'
p1179
I3
sS'3741'
p1180
I3
sS'3759'
p1181
I3
sS'3758'
p1182
I3
sS'3755'
p1183
I3
sS'3754'
p1184
I3
sS'3757'
p1185
I3
sS'3756'
p1186
I3
sS'3699'
p1187
I4
sS'3690'
p1188
I24
sS'3691'
p1189
I1
sS'3693'
p1190
I2
sS'3694'
p1191
I2
sS'3695'
p1192
I1
sS'3696'
p1193
I4
sS'3697'
p1194
I1
sS'3893'
p1195
I1
sS'3890'
p1196
I1
sS'3896'
p1197
I1
sS'3942'
p1198
I1
sS'3895'
p1199
I1
sS'3878'
p1200
I1
sS'3879'
p1201
I1
sS'3943'
p1202
I1
sS'3875'
p1203
I1
sS'3876'
p1204
I2
sS'3877'
p1205
I2
sS'3728'
p1206
I5
sS'3729'
p1207
I1
sS'3925'
p1208
I1
sS'3725'
p1209
I1
sS'3727'
p1210
I1
sS'3723'
p1211
I2
sS'3885'
p1212
I1
sS'3689'
p1213
I2
sS'3688'
p1214
I7
sS'3881'
p1215
I1
sS'3880'
p1216
I1
sS'3883'
p1217
I2
sS'3882'
p1218
I1
sS'3682'
p1219
I1
sS'3681'
p1220
I4
sS'3680'
p1221
I2
sS'3686'
p1222
I3
sS'3685'
p1223
I7
sS'3900'
p1224
I2
sS'3901'
p1225
I2
sS'3908'
p1226
I1
sS'3909'
p1227
I1
sS'3737'
p1228
I2
sS'3939'
p1229
I1
sS'3735'
p1230
I1
sS'3734'
p1231
I1
sS'3733'
p1232
I1
sS'3732'
p1233
I1
sS'3731'
p1234
I1
sS'3730'
p1235
I3
sS'3917'
p1236
I2
sS'3916'
p1237
I1
sS'3912'
p1238
I1
sS'3919'
p1239
I6
sS'3918'
p1240
I2
sS'3709'
p1241
I3
sS'3700'
p1242
I2
sS'3932'
p1243
I1
sS'3706'
p1244
I1
sS'3783'
p1245
I1
sS'3780'
p1246
I2
sS'3781'
p1247
I2
sS'3787'
p1248
I1
sS'3784'
p1249
I2
sS'3788'
p1250
I3
sa(dp1251
S'4159'
p1252
I1
sS'4085'
p1253
I1
sS'4088'
p1254
I1
sS'4185'
p1255
I1
sS'4223'
p1256
I1
sS'4027'
p1257
I1
sS'4176'
p1258
I1
sS'4090'
p1259
I1
sS'3968'
p1260
I8
sS'4220'
p1261
I1
sS'4196'
p1262
I1
sS'4222'
p1263
I1
sS'3419'
p1264
I2
sS'4008'
p1265
I1
sS'4013'
p1266
I1
sS'4216'
p1267
I1
sS'4065'
p1268
I1
sS'4000'
p1269
I1
sS'4001'
p1270
I5
sS'4002'
p1271
I3
sS'4140'
p1272
I1
sS'4006'
p1273
I1
sS'4007'
p1274
I1
sS'3971'
p1275
I1
sS'3970'
p1276
I3
sS'3973'
p1277
I1
sS'3972'
p1278
I1
sS'2019'
p1279
I2
sS'3977'
p1280
I1
sS'3976'
p1281
I30
sS'4010'
p1282
I1
sS'3978'
p1283
I3
sS'3995'
p1284
I2
sS'3994'
p1285
I1
sS'3993'
p1286
I2
sS'3992'
p1287
I1
sS'4174'
p1288
I1
sS'3959'
p1289
I2
sS'3958'
p1290
I1
sS'4096'
p1291
I4
sS'4169'
p1292
I1
sS'3953'
p1293
I6
sS'3952'
p1294
I21
sS'3951'
p1295
I5
sS'3950'
p1296
I11
sS'3957'
p1297
I1
sS'3956'
p1298
I937
sS'3955'
p1299
I3
sS'3954'
p1300
I5
sS'4116'
p1301
I1
sS'4117'
p1302
I1
sS'4033'
p1303
I2
sS'4035'
p1304
I2
sS'4037'
p1305
I2
sS'3996'
p1306
I2
sS'4156'
p1307
I2
sS'4118'
p1308
I1
sS'1036'
p1309
I3
sS'4138'
p1310
I1
sS'4175'
p1311
I1
sS'4019'
p1312
I1
sS'4177'
p1313
I1
sS'4079'
p1314
I1
sS'4130'
p1315
I1
sS'4012'
p1316
I5
sS'4011'
p1317
I4
sS'4076'
p1318
I2
sS'4178'
p1319
I1
sS'4135'
p1320
I1
sS'3966'
p1321
I2
sS'3967'
p1322
I10
sS'4219'
p1323
I1
sS'4209'
p1324
I2
sS'3988'
p1325
I3
sS'3963'
p1326
I1
sS'3960'
p1327
I1
sS'3961'
p1328
I1
sS'3984'
p1329
I2
sS'3987'
p1330
I3
sS'4221'
p1331
I1
sS'4147'
p1332
I1
sS'3982'
p1333
I1
sS'3969'
p1334
I19
sa(dp1335
S'4250'
p1336
I1
sS'4248'
p1337
I1
sS'4249'
p1338
I1
sS'4251'
p1339
I1
sS'4247'
p1340
I1
sS'4244'
p1341
I2
sS'4243'
p1342
I2
sS'4240'
p1343
I1
sS'4236'
p1344
I2
sS'4239'
p1345
I1
sS'4238'
p1346
I1
sS'4225'
p1347
I14
sS'4233'
p1348
I3
sS'4232'
p1349
I3
sS'4231'
p1350
I1
sa(dp1351
S'4260'
p1352
I1
sS'4261'
p1353
I1
sS'4263'
p1354
I9
sS'4264'
p1355
I1
sS'4305'
p1356
I1
sS'4267'
p1357
I9
sS'4268'
p1358
I2
sS'4324'
p1359
I1
sS'4310'
p1360
I1
sS'4282'
p1361
I1
sS'4283'
p1362
I6
sS'4280'
p1363
I2
sS'4303'
p1364
I2
sS'1010'
p1365
I1
sS'4259'
p1366
I6
sS'4311'
p1367
I1
sS'4302'
p1368
I1
sS'4276'
p1369
I1
sS'4275'
p1370
I5
sS'4274'
p1371
I1
sS'4278'
p1372
I1
sS'1984'
p1373
I3
sS'4257'
p1374
I25
sS'4256'
p1375
I2
sS'4295'
p1376
I1
sS'4294'
p1377
I2
sS'4297'
p1378
I8
sS'4296'
p1379
I1
sS'4291'
p1380
I1
sS'4293'
p1381
I1
sS'4292'
p1382
I1
sa(dp1383
S'4329'
p1384
I50
sS'4328'
p1385
I12
sS'4365'
p1386
I1
sS'4380'
p1387
I2
sS'4325'
p1388
I50
sS'4327'
p1389
I4
sS'4326'
p1390
I2
sS'4435'
p1391
I1
sS'4434'
p1392
I1
sS'4436'
p1393
I1
sS'4456'
p1394
I1
sS'4459'
p1395
I1
sS'4403'
p1396
I1
sS'4439'
p1397
I6
sS'4438'
p1398
I2
sS'4388'
p1399
I1
sS'4419'
p1400
I1
sS'4383'
p1401
I2
sS'4382'
p1402
I10
sS'4381'
p1403
I2
sS'4414'
p1404
I14
sS'4377'
p1405
I2
sS'4448'
p1406
I1
sS'4372'
p1407
I2
sS'4338'
p1408
I2
sS'4336'
p1409
I7
sS'4337'
p1410
I3
sS'4334'
p1411
I2
sS'4335'
p1412
I1
sS'4333'
p1413
I20
sS'4442'
p1414
I1
sS'4443'
p1415
I1
sS'4444'
p1416
I1
sS'4359'
p1417
I2
sS'4447'
p1418
I1
sS'4354'
p1419
I2
sS'4376'
p1420
I2
sS'4351'
p1421
I2
sS'4374'
p1422
I2
sS'4375'
p1423
I2
sS'4422'
p1424
I1
sS'4405'
p1425
I1
sS'4420'
p1426
I1
sS'4407'
p1427
I1
sS'4378'
p1428
I2
sS'4424'
p1429
I5
sS'4425'
p1430
I4
sS'4379'
p1431
I2
sS'4416'
p1432
I2
sa(dp1433
S'4479'
p1434
I1
sS'4478'
p1435
I1
sS'4475'
p1436
I1
sS'4474'
p1437
I2
sS'4477'
p1438
I1
sS'4476'
p1439
I1
sS'4518'
p1440
I2
sS'4519'
p1441
I2
sS'4512'
p1442
I2
sS'4513'
p1443
I2
sS'4510'
p1444
I2
sS'4511'
p1445
I2
sS'4516'
p1446
I2
sS'4517'
p1447
I2
sS'4514'
p1448
I2
sS'4515'
p1449
I2
sS'4546'
p1450
I1
sS'4505'
p1451
I2
sS'4507'
p1452
I2
sS'4506'
p1453
I2
sS'4503'
p1454
I1
sS'4509'
p1455
I2
sS'4508'
p1456
I2
sS'4547'
p1457
I1
sS'4461'
p1458
I25
sS'4525'
p1459
I1
sS'4524'
p1460
I1
sS'4523'
p1461
I2
sS'4522'
p1462
I2
sS'4521'
p1463
I2
sS'4520'
p1464
I2
sS'4484'
p1465
I1
sS'4480'
p1466
I1
sS'4481'
p1467
I1
sS'4482'
p1468
I1
sS'4483'
p1469
I3
sa(dp1470
S'4626'
p1471
I1
sS'4627'
p1472
I2
sS'4633'
p1473
I1
sS'4570'
p1474
I1
sS'4571'
p1475
I1
sS'4572'
p1476
I1
sS'4573'
p1477
I1
sS'4574'
p1478
I5
sS'4577'
p1479
I3
sS'4578'
p1480
I1
sS'4579'
p1481
I1
sS'4552'
p1482
I26
sS'4550'
p1483
I1
sS'4611'
p1484
I1
sS'2523'
p1485
I2
sS'4169'
p1486
I1
sS'1351'
p1487
I4
sS'4549'
p1488
I1
sS'3332'
p1489
I2
sS'4561'
p1490
I3
sS'4560'
p1491
I4
sS'4567'
p1492
I1
sS'4625'
p1493
I1
sS'4565'
p1494
I2
sS'4564'
p1495
I2
sS'4628'
p1496
I1
sS'4629'
p1497
I3
sS'4569'
p1498
I1
sS'4568'
p1499
I1
sS'4634'
p1500
I1
sS'4563'
p1501
I4
sS'4632'
p1502
I1
sS'1559'
p1503
I1
sS'4630'
p1504
I2
sS'4585'
p1505
I1
sS'4587'
p1506
I3
sS'4581'
p1507
I2
sS'4580'
p1508
I2
sS'4583'
p1509
I3
sS'4582'
p1510
I1
sa(dp1511
S'4789'
p1512
I1
sS'4788'
p1513
I1
sS'4785'
p1514
I1
sS'4781'
p1515
I1
sS'4780'
p1516
I1
sS'4707'
p1517
I2
sS'4706'
p1518
I2
sS'4705'
p1519
I2
sS'4704'
p1520
I2
sS'4703'
p1521
I2
sS'4702'
p1522
I2
sS'4701'
p1523
I2
sS'4700'
p1524
I2
sS'4677'
p1525
I1
sS'4676'
p1526
I1
sS'4675'
p1527
I1
sS'4674'
p1528
I3
sS'4673'
p1529
I5
sS'4672'
p1530
I3
sS'4671'
p1531
I5
sS'4670'
p1532
I3
sS'4779'
p1533
I1
sS'1098'
p1534
I2
sS'2488'
p1535
I2
sS'4732'
p1536
I2
sS'4733'
p1537
I2
sS'4730'
p1538
I4
sS'4731'
p1539
I2
sS'4736'
p1540
I2
sS'4737'
p1541
I2
sS'4734'
p1542
I2
sS'4735'
p1543
I2
sS'4642'
p1544
I2
sS'4738'
p1545
I2
sS'4641'
p1546
I4
sS'4644'
p1547
I9
sS'4640'
p1548
I1
sS'4739'
p1549
I2
sS'4659'
p1550
I1
sS'4658'
p1551
I1
sS'4729'
p1552
I2
sS'4728'
p1553
I2
sS'4725'
p1554
I2
sS'4724'
p1555
I4
sS'4727'
p1556
I2
sS'4726'
p1557
I2
sS'4721'
p1558
I2
sS'4720'
p1559
I2
sS'4723'
p1560
I2
sS'4722'
p1561
I2
sS'4758'
p1562
I2
sS'4759'
p1563
I2
sS'4679'
p1564
I3
sS'4750'
p1565
I2
sS'4751'
p1566
I2
sS'4752'
p1567
I2
sS'4678'
p1568
I2
sS'4754'
p1569
I2
sS'4755'
p1570
I2
sS'4756'
p1571
I2
sS'4262'
p1572
I6
sS'4709'
p1573
I2
sS'4639'
p1574
I17
sS'4638'
p1575
I4
sS'4749'
p1576
I2
sS'4748'
p1577
I2
sS'4743'
p1578
I2
sS'4742'
p1579
I2
sS'4741'
p1580
I2
sS'4740'
p1581
I2
sS'4747'
p1582
I2
sS'4746'
p1583
I2
sS'4745'
p1584
I4
sS'4744'
p1585
I4
sS'1595'
p1586
I4
sS'4777'
p1587
I1
sS'4773'
p1588
I3
sS'4770'
p1589
I2
sS'4771'
p1590
I2
sS'4668'
p1591
I7
sS'4778'
p1592
I1
sS'4669'
p1593
I1
sS'4686'
p1594
I4
sS'4687'
p1595
I4
sS'4684'
p1596
I4
sS'4685'
p1597
I2
sS'4683'
p1598
I1
sS'4680'
p1599
I4
sS'4688'
p1600
I2
sS'4689'
p1601
I2
sS'4708'
p1602
I2
sS'4753'
p1603
I2
sS'4660'
p1604
I1
sS'4661'
p1605
I1
sS'4761'
p1606
I2
sS'4760'
p1607
I2
sS'4762'
p1608
I2
sS'4765'
p1609
I1
sS'4766'
p1610
I1
sS'4769'
p1611
I2
sS'4691'
p1612
I2
sS'4690'
p1613
I9
sS'4693'
p1614
I4
sS'4695'
p1615
I2
sS'4694'
p1616
I2
sS'4697'
p1617
I2
sS'4696'
p1618
I4
sS'4699'
p1619
I2
sS'4698'
p1620
I2
sS'4776'
p1621
I1
sS'4798'
p1622
I1
sS'4792'
p1623
I1
sS'4714'
p1624
I2
sS'4715'
p1625
I2
sS'4716'
p1626
I2
sS'4717'
p1627
I2
sS'4710'
p1628
I4
sS'4711'
p1629
I2
sS'4712'
p1630
I4
sS'4713'
p1631
I2
sS'4664'
p1632
I4
sS'4665'
p1633
I7
sS'4666'
p1634
I5
sS'4667'
p1635
I5
sS'4718'
p1636
I2
sS'4719'
p1637
I2
sS'4662'
p1638
I1
sS'4663'
p1639
I4
sa(dp1640
S'4801'
p1641
I2
sS'4799'
p1642
I7
sa(dp1643
S'4813'
p1644
I1
sS'4812'
p1645
I1
sS'4811'
p1646
I1
sS'4825'
p1647
I1
sS'4804'
p1648
I3
sS'4805'
p1649
I5
sS'4807'
p1650
I2
sS'4808'
p1651
I3
sS'4809'
p1652
I3
sS'4819'
p1653
I1
sS'4818'
p1654
I1
sS'4823'
p1655
I1
sS'4820'
p1656
I1
sS'4826'
p1657
I1
sS'4827'
p1658
I1
sS'4824'
p1659
I1
sS'4817'
p1660
I1
sS'4580'
p1661
I2
sS'4816'
p1662
I1
sa(dp1663
S'5331'
p1664
I1
sS'5729'
p1665
I17
sS'5298'
p1666
I8
sS'5873'
p1667
I1
sS'5722'
p1668
I3
sS'4525'
p1669
I1
sS'5317'
p1670
I2
sS'5735'
p1671
I1
sS'5734'
p1672
I1
sS'5870'
p1673
I1
sS'5731'
p1674
I2
sS'5865'
p1675
I1
sS'188'
p1676
I1
sa(dp1677
S'5901'
p1678
I35
sa(dp1679
S'3418'
p1680
I1
sS'6222'
p1681
I2
sS'5988'
p1682
I1
sS'6003'
p1683
I1
sS'5982'
p1684
I7
sS'5983'
p1685
I7
sS'5980'
p1686
I7
sS'5981'
p1687
I7
sS'5985'
p1688
I2
sS'6248'
p1689
I1
sS'6321'
p1690
I1
sS'6320'
p1691
I2
sS'6246'
p1692
I1
sS'6247'
p1693
I1
sS'5923'
p1694
I5
sS'5994'
p1695
I1
sS'4561'
p1696
I1
sS'5996'
p1697
I1
sS'5991'
p1698
I1
sS'6011'
p1699
I3
sS'6010'
p1700
I1
sS'5928'
p1701
I4
sS'6298'
p1702
I1
sS'6300'
p1703
I1
sS'6297'
p1704
I1
sS'6311'
p1705
I1
sS'5918'
p1706
I3
sS'6296'
p1707
I1
sS'5915'
p1708
I5
sS'5914'
p1709
I4
sS'5916'
p1710
I1
sS'5913'
p1711
I2
sS'5912'
p1712
I2
sS'6305'
p1713
I1
sS'6143'
p1714
I1
sS'6267'
p1715
I1
sS'6265'
p1716
I1
sS'6260'
p1717
I1
sS'5968'
p1718
I7
sS'5969'
p1719
I7
sS'5960'
p1720
I9
sS'5961'
p1721
I7
sS'5962'
p1722
I7
sS'5963'
p1723
I8
sS'5964'
p1724
I7
sS'5965'
p1725
I7
sS'5966'
p1726
I7
sS'5967'
p1727
I8
sS'6271'
p1728
I1
sS'6250'
p1729
I1
sS'5979'
p1730
I7
sS'6074'
p1731
I1
sS'6073'
p1732
I1
sS'6072'
p1733
I1
sS'5973'
p1734
I7
sS'5972'
p1735
I7
sS'5971'
p1736
I7
sS'5970'
p1737
I8
sS'5977'
p1738
I7
sS'5976'
p1739
I7
sS'5975'
p1740
I7
sS'5974'
p1741
I20
sS'2619'
p1742
I2
sS'6161'
p1743
I2
sS'6160'
p1744
I1
sS'5946'
p1745
I4
sS'3216'
p1746
I2
sS'5940'
p1747
I1
sS'6043'
p1748
I1
sS'6040'
p1749
I1
sS'6047'
p1750
I1
sS'6044'
p1751
I1
sS'1032'
p1752
I1
sS'6319'
p1753
I1
sS'5951'
p1754
I2
sS'5953'
p1755
I1
sS'5955'
p1756
I11
sS'5954'
p1757
I1
sS'6299'
p1758
I1
sS'5956'
p1759
I1
sS'5959'
p1760
I7
sS'5958'
p1761
I7
sS'6295'
p1762
I1
sS'6294'
p1763
I1
sS'6293'
p1764
I1
sS'6111'
p1765
I3
sS'6197'
p1766
I1
sS'6054'
p1767
I3
sS'6057'
p1768
I1
sS'6050'
p1769
I1
sS'6219'
p1770
I1
sS'6052'
p1771
I2
sS'5924'
p1772
I9
sS'5926'
p1773
I4
sS'5978'
p1774
I7
sS'3976'
p1775
I56
sS'6020'
p1776
I2
sS'6023'
p1777
I1
sS'6024'
p1778
I2
sS'6025'
p1779
I1
sS'6026'
p1780
I1
sS'6131'
p1781
I1
sS'5936'
p1782
I2
sS'5935'
p1783
I1
sS'5934'
p1784
I1
sS'5933'
p1785
I1
sS'5930'
p1786
I2
sS'5939'
p1787
I691
sS'6034'
p1788
I3
sa(dp1789
S'6324'
p1790
I7
sS'6329'
p1791
I1
sS'6328'
p1792
I1
sa(dp1793
S'6385'
p1794
I1
sS'6381'
p1795
I1
sS'6380'
p1796
I1
sS'6383'
p1797
I2
sS'6382'
p1798
I4
sS'6341'
p1799
I1
sS'6411'
p1800
I1
sS'6410'
p1801
I1
sS'6369'
p1802
I7
sS'3996'
p1803
I4
sS'6361'
p1804
I1
sS'6360'
p1805
I1
sS'5928'
p1806
I5
sS'6365'
p1807
I9
sS'6364'
p1808
I1
sS'6362'
p1809
I1
sS'6406'
p1810
I1
sS'6402'
p1811
I1
sS'6403'
p1812
I2
sS'6401'
p1813
I1
sS'6352'
p1814
I3
sS'6407'
p1815
I1
sS'6405'
p1816
I1
sS'6367'
p1817
I9
sS'6408'
p1818
I1
sS'6409'
p1819
I1
sS'6379'
p1820
I2
sS'6393'
p1821
I1
sS'6370'
p1822
I1
sS'6372'
p1823
I1
sS'6373'
p1824
I1
sS'6374'
p1825
I1
sS'6375'
p1826
I1
sS'6376'
p1827
I1
sS'6377'
p1828
I2
sa(dp1829
S'6591'
p1830
I1
sS'6491'
p1831
I1
sS'6490'
p1832
I4
sS'6499'
p1833
I1
sS'133'
p1834
I1
sS'6631'
p1835
I1
sS'6534'
p1836
I1
sS'6533'
p1837
I1
sS'6606'
p1838
I1
sS'6629'
p1839
I1
sS'6523'
p1840
I1
sS'6458'
p1841
I16
sS'6502'
p1842
I1
sS'6633'
p1843
I1
sS'6437'
p1844
I2
sS'6555'
p1845
I2
sS'6556'
p1846
I1
sS'6625'
p1847
I1
sS'6433'
p1848
I1
sS'6431'
p1849
I1
sS'6430'
p1850
I1
sS'5313'
p1851
I3
sS'6511'
p1852
I1
sS'6417'
p1853
I11
sS'6416'
p1854
I2
sS'6559'
p1855
I2
sS'6413'
p1856
I703
sS'3214'
p1857
I1
sS'6587'
p1858
I1
sS'6588'
p1859
I1
sS'6521'
p1860
I1
sS'6488'
p1861
I1
sS'6522'
p1862
I1
sS'6524'
p1863
I1
sS'6482'
p1864
I1
sS'6569'
p1865
I2
sS'6619'
p1866
I1
sS'6632'
p1867
I1
sS'6487'
p1868
I1
sS'6448'
p1869
I1
sS'6542'
p1870
I3
sS'6630'
p1871
I1
sS'1803'
p1872
I1
sS'6421'
p1873
I1
sS'6422'
p1874
I2
sS'6540'
p1875
I3
sS'6460'
p1876
I1
sS'6461'
p1877
I1
sS'6464'
p1878
I1
sS'6465'
p1879
I1
sS'35'
p1880
I1
sS'6414'
p1881
I1
sS'6541'
p1882
I3
sS'6512'
p1883
I1
sa(dp1884
S'6736'
p1885
I1
sS'6742'
p1886
I1
sS'6709'
p1887
I3
sS'6722'
p1888
I1
sS'6747'
p1889
I2
sS'6741'
p1890
I2
sS'6726'
p1891
I1
sS'6743'
p1892
I2
sS'3327'
p1893
I3
sS'6701'
p1894
I6
sS'6729'
p1895
I1
sS'6702'
p1896
I1
sS'6781'
p1897
I1
sS'6780'
p1898
I1
sS'6783'
p1899
I1
sS'6782'
p1900
I2
sS'6785'
p1901
I1
sS'6784'
p1902
I1
sS'6640'
p1903
I8
sS'6641'
p1904
I3
sS'6642'
p1905
I2
sS'6643'
p1906
I1
sS'6681'
p1907
I1
sS'6682'
p1908
I3
sS'6683'
p1909
I1
sS'6685'
p1910
I3
sS'6686'
p1911
I1
sS'6687'
p1912
I3
sS'6796'
p1913
I1
sS'6738'
p1914
I1
sS'6797'
p1915
I1
sS'6794'
p1916
I1
sS'6735'
p1917
I1
sS'6718'
p1918
I2
sS'6737'
p1919
I1
sS'6716'
p1920
I2
sS'6717'
p1921
I2
sS'6714'
p1922
I3
sS'6715'
p1923
I1
sS'6712'
p1924
I1
sS'6713'
p1925
I3
sS'6710'
p1926
I4
sS'6711'
p1927
I2
sS'6744'
p1928
I1
sS'6745'
p1929
I1
sS'6739'
p1930
I1
sS'6795'
p1931
I1
sS'6778'
p1932
I1
sS'6779'
p1933
I1
sS'6658'
p1934
I1
sS'6774'
p1935
I2
sS'6775'
p1936
I1
sS'6776'
p1937
I1
sS'6777'
p1938
I1
sS'6771'
p1939
I1
sS'6798'
p1940
I1
sS'6799'
p1941
I1
sS'6699'
p1942
I1
sS'1533'
p1943
I1
sS'6740'
p1944
I1
sa(dp1945
S'6855'
p1946
I1
sS'6854'
p1947
I2
sS'6857'
p1948
I1
sS'6856'
p1949
I1
sS'6851'
p1950
I1
sS'6850'
p1951
I1
sS'6853'
p1952
I1
sS'6852'
p1953
I1
sS'6858'
p1954
I1
sS'6919'
p1955
I1
sS'3141'
p1956
I1
sS'6721'
p1957
I2
sS'6900'
p1958
I2
sS'6877'
p1959
I11
sS'6875'
p1960
I2
sS'6874'
p1961
I2
sS'6873'
p1962
I2
sS'2821'
p1963
I3
sS'6871'
p1964
I5
sS'6870'
p1965
I1
sS'6921'
p1966
I1
sS'6918'
p1967
I1
sS'6872'
p1968
I2
sS'6922'
p1969
I1
sS'6920'
p1970
I1
sS'6804'
p1971
I5
sS'6805'
p1972
I2
sS'6802'
p1973
I1
sS'6803'
p1974
I1
sS'6814'
p1975
I2
sS'6914'
p1976
I1
sS'6848'
p1977
I1
sS'6849'
p1978
I1
sS'6868'
p1979
I1
sS'6869'
p1980
I1
sS'6912'
p1981
I3
sS'6864'
p1982
I1
sS'6865'
p1983
I1
sS'6866'
p1984
I1
sS'6846'
p1985
I1
sS'6847'
p1986
I1
sS'6917'
p1987
I1
sa(dp1988
S'6961'
p1989
I2
sS'6960'
p1990
I2
sS'6963'
p1991
I2
sS'6962'
p1992
I2
sS'6965'
p1993
I2
sS'6964'
p1994
I2
sS'6967'
p1995
I2
sS'6966'
p1996
I2
sS'6969'
p1997
I2
sS'6968'
p1998
I2
sS'6982'
p1999
I1
sS'6981'
p2000
I1
sS'6980'
p2001
I1
sS'6925'
p2002
I8
sS'6976'
p2003
I2
sS'6977'
p2004
I2
sS'6974'
p2005
I2
sS'6975'
p2006
I2
sS'6972'
p2007
I2
sS'6973'
p2008
I2
sS'6970'
p2009
I2
sS'6971'
p2010
I2
sS'6958'
p2011
I2
sS'6959'
p2012
I2
sS'6930'
p2013
I2
sS'6955'
p2014
I2
sS'6956'
p2015
I2
sS'6957'
p2016
I2
sa(dp2017
S'6986'
p2018
I5
sS'6985'
p2019
I4
sS'6984'
p2020
I8
sS'7031'
p2021
I1
sS'7018'
p2022
I2
sS'7019'
p2023
I1
sS'6700'
p2024
I5
sS'7017'
p2025
I2
sS'7053'
p2026
I1
sS'7050'
p2027
I1
sS'7054'
p2028
I1
sS'7055'
p2029
I1
sS'1465'
p2030
I1
sS'148'
p2031
I3
sS'7023'
p2032
I1
sS'7022'
p2033
I2
sS'7047'
p2034
I1
sS'7046'
p2035
I1
sS'7026'
p2036
I4
sS'7025'
p2037
I1
sS'7042'
p2038
I1
sS'7028'
p2039
I1
sS'7049'
p2040
I1
sS'7048'
p2041
I1
sS'4010'
p2042
I1
sS'7021'
p2043
I1
sS'7020'
p2044
I1
sS'5912'
p2045
I1
sa(dp2046
S'1027'
p2047
I1
sS'7059'
p2048
I1
sS'7067'
p2049
I1
sS'7066'
p2050
I1
sS'7065'
p2051
I1
sS'7062'
p2052
I1
sS'7061'
p2053
I1
sS'7057'
p2054
I8
sS'7060'
p2055
I1
sS'6083'
p2056
I1
sa(dp2057
S'7206'
p2058
I3
sS'7221'
p2059
I1
sS'7112'
p2060
I2
sS'7223'
p2061
I1
sS'7110'
p2062
I2
sS'7117'
p2063
I10
sS'7205'
p2064
I3
sS'7115'
p2065
I6
sS'7114'
p2066
I3
sS'7382'
p2067
I1
sS'7228'
p2068
I1
sS'7119'
p2069
I5
sS'7118'
p2070
I15
sS'7384'
p2071
I2
sS'7201'
p2072
I2
sS'7199'
p2073
I4
sS'7191'
p2074
I1
sS'7190'
p2075
I1
sS'7195'
p2076
I1
sS'7218'
p2077
I1
sS'7396'
p2078
I2
sS'7219'
p2079
I1
sS'7399'
p2080
I1
sS'7083'
p2081
I15
sS'7249'
p2082
I1
sS'7082'
p2083
I28
sS'7128'
p2084
I2
sS'7129'
p2085
I2
sS'7126'
p2086
I1
sS'7127'
p2087
I3
sS'4234'
p2088
I5
sS'7123'
p2089
I1
sS'7120'
p2090
I2
sS'7121'
p2091
I3
sS'7440'
p2092
I1
sS'7443'
p2093
I1
sS'7257'
p2094
I1
sS'7250'
p2095
I1
sS'7251'
p2096
I1
sS'7252'
p2097
I1
sS'7446'
p2098
I1
sS'7449'
p2099
I2
sS'7448'
p2100
I2
sS'7258'
p2101
I2
sS'7259'
p2102
I5
sS'7210'
p2103
I2
sS'7211'
p2104
I5
sS'7225'
p2105
I1
sS'7212'
p2106
I2
sS'7224'
p2107
I3
sS'7213'
p2108
I3
sS'7226'
p2109
I1
sS'7138'
p2110
I2
sS'7164'
p2111
I2
sS'7131'
p2112
I2
sS'7130'
p2113
I3
sS'7133'
p2114
I4
sS'7132'
p2115
I2
sS'7135'
p2116
I2
sS'7134'
p2117
I3
sS'7137'
p2118
I1
sS'7136'
p2119
I2
sS'7246'
p2120
I1
sS'7245'
p2121
I5
sS'7381'
p2122
I1
sS'7236'
p2123
I1
sS'7241'
p2124
I1
sS'7240'
p2125
I1
sS'7360'
p2126
I3
sS'7362'
p2127
I3
sS'7363'
p2128
I1
sS'7364'
p2129
I1
sS'7365'
p2130
I1
sS'7366'
p2131
I1
sS'7434'
p2132
I1
sS'7435'
p2133
I1
sS'7204'
p2134
I3
sS'7432'
p2135
I1
sS'7433'
p2136
I1
sS'7438'
p2137
I1
sS'7439'
p2138
I1
sS'7074'
p2139
I63
sS'1054'
p2140
I1
sS'7163'
p2141
I1
sS'7269'
p2142
I1
sS'3312'
p2143
I1
sS'7272'
p2144
I1
sS'7273'
p2145
I3
sS'7270'
p2146
I1
sS'7276'
p2147
I1
sS'7159'
p2148
I1
sS'7274'
p2149
I1
sS'7237'
p2150
I8
sS'7144'
p2151
I1
sS'7278'
p2152
I1
sS'7158'
p2153
I1
sS'7140'
p2154
I5
sS'7141'
p2155
I3
sS'7375'
p2156
I4
sS'7143'
p2157
I6
sS'7426'
p2158
I1
sS'7267'
p2159
I1
sS'7266'
p2160
I2
sS'7370'
p2161
I1
sS'7261'
p2162
I1
sS'7231'
p2163
I1
sS'6704'
p2164
I2
sS'7116'
p2165
I1
sS'7263'
p2166
I1
sS'7262'
p2167
I1
sS'7097'
p2168
I4
sS'7095'
p2169
I7
sS'7092'
p2170
I7
sS'7093'
p2171
I13
sS'7090'
p2172
I9
sS'7091'
p2173
I6
sS'7157'
p2174
I1
sS'7156'
p2175
I2
sS'7155'
p2176
I1
sS'7154'
p2177
I4
sS'7153'
p2178
I7
sS'7098'
p2179
I7
sS'7099'
p2180
I6
sS'7413'
p2181
I1
sS'7410'
p2182
I1
sS'7411'
p2183
I1
sS'7416'
p2184
I1
sS'7418'
p2185
I1
sS'7419'
p2186
I1
sS'7380'
p2187
I1
sS'7379'
p2188
I1
sS'7355'
p2189
I1
sS'7357'
p2190
I5
sS'7359'
p2191
I1
sS'7358'
p2192
I2
sS'7150'
p2193
I5
sS'7277'
p2194
I2
sS'7081'
p2195
I27
sS'7080'
p2196
I16
sS'7168'
p2197
I1
sS'7169'
p2198
I1
sS'7085'
p2199
I3
sS'7084'
p2200
I13
sS'7087'
p2201
I6
sS'7086'
p2202
I6
sS'7089'
p2203
I17
sS'7088'
p2204
I1
sS'7160'
p2205
I1
sS'7161'
p2206
I10
sS'7166'
p2207
I5
sS'7167'
p2208
I1
sS'7216'
p2209
I2
sS'7165'
p2210
I1
sS'7373'
p2211
I1
sS'7408'
p2212
I1
sS'7405'
p2213
I1
sS'7404'
p2214
I3
sS'7407'
p2215
I1
sS'7406'
p2216
I1
sS'7401'
p2217
I1
sS'7400'
p2218
I1
sS'7403'
p2219
I1
sS'7402'
p2220
I1
sS'7283'
p2221
I2
sS'7279'
p2222
I1
sS'7148'
p2223
I2
sS'7174'
p2224
I1
sS'7176'
p2225
I2
sS'7173'
p2226
I1
sS'7172'
p2227
I1
sS'7374'
p2228
I2
sS'7179'
p2229
I1
sS'7178'
p2230
I1
sS'7209'
p2231
I3
sS'7208'
p2232
I3
sS'7078'
p2233
I5
sS'7079'
p2234
I5
sS'7203'
p2235
I4
sS'7075'
p2236
I5
sS'7076'
p2237
I12
sS'7077'
p2238
I6
sS'7207'
p2239
I3
sS'7071'
p2240
I592
sS'7072'
p2241
I3
sS'7073'
p2242
I2
sS'7442'
p2243
I1
sS'7369'
p2244
I1
sS'7398'
p2245
I1
sS'7100'
p2246
I1
sS'7101'
p2247
I18
sS'7102'
p2248
I12
sS'7103'
p2249
I2
sS'7104'
p2250
I2
sS'7105'
p2251
I2
sS'7106'
p2252
I2
sS'7107'
p2253
I4
sS'7108'
p2254
I22
sS'7109'
p2255
I13
sS'7239'
p2256
I1
sS'7445'
p2257
I1
sS'7217'
p2258
I2
sS'7189'
p2259
I7
sS'7180'
p2260
I12
sS'7181'
p2261
I1
sS'7182'
p2262
I1
sS'7185'
p2263
I1
sS'7186'
p2264
I1
sS'7444'
p2265
I1
sa(dp2266
S'7456'
p2267
I2
sS'7457'
p2268
I1
sS'7454'
p2269
I1
sS'7455'
p2270
I2
sS'7452'
p2271
I1
sS'7453'
p2272
I1
sS'7459'
p2273
I3
sS'7517'
p2274
I1
sS'7516'
p2275
I1
sS'7515'
p2276
I1
sS'7514'
p2277
I1
sS'7512'
p2278
I2
sS'7511'
p2279
I2
sS'7510'
p2280
I2
sS'7519'
p2281
I1
sS'7518'
p2282
I1
sS'7522'
p2283
I1
sS'7523'
p2284
I1
sS'7520'
p2285
I1
sS'7521'
p2286
I1
sS'7526'
p2287
I1
sS'7527'
p2288
I1
sS'7524'
p2289
I1
sS'7525'
p2290
I1
sS'7528'
p2291
I1
sS'7529'
p2292
I1
sS'7539'
p2293
I1
sS'7538'
p2294
I1
sS'7535'
p2295
I1
sS'7534'
p2296
I1
sS'7537'
p2297
I1
sS'7536'
p2298
I1
sS'7531'
p2299
I1
sS'7530'
p2300
I1
sS'7533'
p2301
I1
sS'7532'
p2302
I1
sS'7540'
p2303
I1
sS'7498'
p2304
I2
sS'7499'
p2305
I2
sS'7492'
p2306
I2
sS'7493'
p2307
I2
sS'7490'
p2308
I2
sS'7491'
p2309
I2
sS'7496'
p2310
I2
sS'7497'
p2311
I2
sS'7494'
p2312
I2
sS'7495'
p2313
I2
sS'7485'
p2314
I2
sS'7484'
p2315
I2
sS'7487'
p2316
I2
sS'7486'
p2317
I2
sS'7481'
p2318
I2
sS'7480'
p2319
I2
sS'7483'
p2320
I2
sS'7482'
p2321
I2
sS'7489'
p2322
I2
sS'7488'
p2323
I2
sS'7469'
p2324
I2
sS'7478'
p2325
I2
sS'7479'
p2326
I2
sS'7468'
p2327
I2
sS'4595'
p2328
I3
sS'7470'
p2329
I2
sS'7471'
p2330
I2
sS'7472'
p2331
I2
sS'7473'
p2332
I2
sS'7474'
p2333
I2
sS'7475'
p2334
I2
sS'7476'
p2335
I2
sS'7477'
p2336
I2
sS'7467'
p2337
I2
sS'7466'
p2338
I2
sS'7504'
p2339
I2
sS'7505'
p2340
I2
sS'7506'
p2341
I2
sS'7507'
p2342
I2
sS'7500'
p2343
I2
sS'7501'
p2344
I2
sS'7502'
p2345
I2
sS'7503'
p2346
I2
sS'7463'
p2347
I2
sS'7461'
p2348
I1
sS'7460'
p2349
I1
sS'7508'
p2350
I2
sS'7509'
p2351
I2
sS'7465'
p2352
I2
sS'7464'
p2353
I2
sa(dp2354
S'7618'
p2355
I7
sS'7619'
p2356
I7
sS'7599'
p2357
I7
sS'7598'
p2358
I7
sS'7614'
p2359
I13
sS'7615'
p2360
I8
sS'7616'
p2361
I20
sS'7594'
p2362
I7
sS'7593'
p2363
I23
sS'7611'
p2364
I11
sS'7612'
p2365
I7
sS'7590'
p2366
I12
sS'7694'
p2367
I2
sS'7695'
p2368
I2
sS'7696'
p2369
I2
sS'7697'
p2370
I2
sS'7692'
p2371
I2
sS'7693'
p2372
I2
sS'7698'
p2373
I2
sS'7699'
p2374
I2
sS'7609'
p2375
I7
sS'7608'
p2376
I12
sS'7607'
p2377
I10
sS'7606'
p2378
I7
sS'1063'
p2379
I3
sS'7604'
p2380
I7
sS'7603'
p2381
I7
sS'7602'
p2382
I13
sS'7601'
p2383
I7
sS'7600'
p2384
I7
sS'2314'
p2385
I2
sS'7605'
p2386
I13
sS'7638'
p2387
I7
sS'7639'
p2388
I6
sS'3472'
p2389
I4
sS'7630'
p2390
I3
sS'7631'
p2391
I16
sS'7634'
p2392
I10
sS'7635'
p2393
I7
sS'7430'
p2394
I1
sS'7625'
p2395
I1
sS'7624'
p2396
I8
sS'7621'
p2397
I7
sS'7620'
p2398
I25
sS'7623'
p2399
I25
sS'7622'
p2400
I8
sS'7629'
p2401
I1
sS'7707'
p2402
I1
sS'7705'
p2403
I1
sS'7702'
p2404
I2
sS'7703'
p2405
I2
sS'7700'
p2406
I2
sS'7701'
p2407
I2
sS'7708'
p2408
I1
sS'7597'
p2409
I12
sS'7596'
p2410
I7
sS'7595'
p2411
I18
sS'7546'
p2412
I28
sS'7617'
p2413
I7
sS'7610'
p2414
I22
sS'7592'
p2415
I24
sS'7650'
p2416
I1
sS'7651'
p2417
I1
sS'6535'
p2418
I2
sS'7654'
p2419
I2
sS'7591'
p2420
I7
sS'7659'
p2421
I1
sS'7613'
p2422
I7
sS'7641'
p2423
I5
sS'7640'
p2424
I2
sS'7647'
p2425
I3
sS'7646'
p2426
I2
sS'7649'
p2427
I1
sS'7648'
p2428
I1
sS'7569'
p2429
I1
sS'7670'
p2430
I1
sS'7575'
p2431
I7
sS'7577'
p2432
I7
sS'7576'
p2433
I7
sS'7579'
p2434
I7
sS'7578'
p2435
I12
sS'7669'
p2436
I3
sS'7668'
p2437
I2
sS'7665'
p2438
I2
sS'7667'
p2439
I2
sS'7666'
p2440
I2
sS'7588'
p2441
I7
sS'7589'
p2442
I7
sS'7584'
p2443
I12
sS'7585'
p2444
I7
sS'7586'
p2445
I17
sS'7587'
p2446
I7
sS'7580'
p2447
I7
sS'7581'
p2448
I11
sS'7582'
p2449
I7
sS'7583'
p2450
I7
sa(dp2451
S'7816'
p2452
I2
sS'7817'
p2453
I2
sS'7814'
p2454
I3
sS'7815'
p2455
I3
sS'7812'
p2456
I3
sS'7813'
p2457
I2
sS'7810'
p2458
I3
sS'7811'
p2459
I3
sS'7818'
p2460
I3
sS'7819'
p2461
I2
sS'7759'
p2462
I2
sS'7758'
p2463
I2
sS'7755'
p2464
I2
sS'7754'
p2465
I2
sS'7757'
p2466
I2
sS'7756'
p2467
I2
sS'7751'
p2468
I2
sS'7750'
p2469
I2
sS'7753'
p2470
I2
sS'7752'
p2471
I2
sS'7801'
p2472
I2
sS'7800'
p2473
I3
sS'7803'
p2474
I3
sS'7802'
p2475
I3
sS'7805'
p2476
I3
sS'7804'
p2477
I3
sS'7807'
p2478
I3
sS'7806'
p2479
I3
sS'7809'
p2480
I3
sS'7808'
p2481
I2
sS'7852'
p2482
I1
sS'7853'
p2483
I1
sS'7720'
p2484
I4
sS'7721'
p2485
I4
sS'7722'
p2486
I4
sS'7723'
p2487
I3
sS'7724'
p2488
I4
sS'7727'
p2489
I1
sS'7867'
p2490
I1
sS'7866'
p2491
I1
sS'7865'
p2492
I1
sS'7864'
p2493
I1
sS'7863'
p2494
I1
sS'7862'
p2495
I1
sS'7861'
p2496
I1
sS'7860'
p2497
I1
sS'7869'
p2498
I1
sS'7868'
p2499
I1
sS'7799'
p2500
I3
sS'7798'
p2501
I3
sS'7856'
p2502
I1
sS'7857'
p2503
I1
sS'7854'
p2504
I1
sS'7855'
p2505
I1
sS'7858'
p2506
I1
sS'7859'
p2507
I1
sS'7795'
p2508
I3
sS'7794'
p2509
I3
sS'7797'
p2510
I3
sS'7796'
p2511
I3
sS'7710'
p2512
I5
sS'7719'
p2513
I1
sS'7841'
p2514
I3
sS'7840'
p2515
I3
sS'7843'
p2516
I3
sS'7842'
p2517
I3
sS'7760'
p2518
I2
sS'7838'
p2519
I3
sS'7839'
p2520
I2
sS'7830'
p2521
I3
sS'7831'
p2522
I3
sS'7832'
p2523
I2
sS'7833'
p2524
I2
sS'7834'
p2525
I2
sS'7835'
p2526
I2
sS'7836'
p2527
I3
sS'7837'
p2528
I2
sS'7829'
p2529
I3
sS'7828'
p2530
I2
sS'7823'
p2531
I3
sS'7822'
p2532
I3
sS'7821'
p2533
I3
sS'7820'
p2534
I2
sS'7827'
p2535
I3
sS'7826'
p2536
I2
sS'7825'
p2537
I3
sS'7824'
p2538
I3
sS'7742'
p2539
I1
sS'7748'
p2540
I2
sS'7749'
p2541
I2
sa(dp2542
S'7874'
p2543
I1
sS'7875'
p2544
I1
sS'7876'
p2545
I2
sS'7877'
p2546
I1
sS'7870'
p2547
I1
sS'7871'
p2548
I1
sS'7872'
p2549
I1
sS'7873'
p2550
I1
sS'7879'
p2551
I6
sS'4800'
p2552
I2
sS'7889'
p2553
I1
sS'7888'
p2554
I2
sS'7881'
p2555
I4
sS'7880'
p2556
I2
sS'7883'
p2557
I1
sS'7882'
p2558
I1
sS'7885'
p2559
I1
sS'3992'
p2560
I1
sS'7887'
p2561
I1
sS'7886'
p2562
I1
sS'5918'
p2563
I4
sS'7898'
p2564
I2
sS'7897'
p2565
I1
sS'7894'
p2566
I1
sS'7895'
p2567
I1
sS'7893'
p2568
I1
sS'7890'
p2569
I1
sS'7891'
p2570
I1
sa(dp2571
S'7935'
p2572
I3
sS'7937'
p2573
I1
sS'7936'
p2574
I3
sS'7939'
p2575
I1
sS'7938'
p2576
I2
sS'7911'
p2577
I1
sS'7917'
p2578
I5
sS'7916'
p2579
I1
sS'6265'
p2580
I1
sS'7926'
p2581
I1
sS'7924'
p2582
I2
sS'7928'
p2583
I1
sS'7908'
p2584
I1
sS'7909'
p2585
I12
sS'7940'
p2586
I1
sS'7942'
p2587
I1
sS'7900'
p2588
I3
sS'7901'
p2589
I1
sS'7903'
p2590
I3
sS'7904'
p2591
I1
sS'7905'
p2592
I1
sS'7906'
p2593
I1
sS'7907'
p2594
I1
sa(dp2595
S'7979'
p2596
I1
sS'7980'
p2597
I1
sS'7945'
p2598
I2
sS'7946'
p2599
I1
sS'7947'
p2600
I1
sS'7953'
p2601
I1
sS'7952'
p2602
I2
sS'7951'
p2603
I1
sS'7950'
p2604
I1
sS'3286'
p2605
I1
sS'7949'
p2606
I1
sS'7978'
p2607
I1
sa(dp2608
S'8255'
p2609
I2
sS'8254'
p2610
I2
sS'8257'
p2611
I2
sS'8256'
p2612
I2
sS'8251'
p2613
I2
sS'8250'
p2614
I2
sS'8158'
p2615
I1
sS'8252'
p2616
I2
sS'8157'
p2617
I2
sS'1149'
p2618
I17
sS'8259'
p2619
I2
sS'8258'
p2620
I2
sS'132'
p2621
I4
sS'6724'
p2622
I4
sS'4224'
p2623
I15
sS'6873'
p2624
I20
sS'8011'
p2625
I3
sS'7958'
p2626
I4
sS'8097'
p2627
I1
sS'8093'
p2628
I1
sS'8253'
p2629
I2
sS'5377'
p2630
I3
sS'8262'
p2631
I2
sS'8149'
p2632
I1
sS'8140'
p2633
I1
sS'8143'
p2634
I1
sS'8142'
p2635
I2
sS'8145'
p2636
I2
sS'8144'
p2637
I1
sS'8146'
p2638
I1
sS'8028'
p2639
I3
sS'8022'
p2640
I45
sS'8023'
p2641
I25
sS'8020'
p2642
I1
sS'8021'
p2643
I1
sS'8026'
p2644
I2
sS'8027'
p2645
I1
sS'8024'
p2646
I11
sS'8025'
p2647
I70
sS'1828'
p2648
I14
sS'8034'
p2649
I1
sS'8037'
p2650
I4
sS'8237'
p2651
I2
sS'8236'
p2652
I3
sS'8032'
p2653
I2
sS'8239'
p2654
I3
sS'8018'
p2655
I1
sS'3277'
p2656
I1
sS'8132'
p2657
I2
sS'8133'
p2658
I1
sS'2540'
p2659
I9
sS'8013'
p2660
I1
sS'1405'
p2661
I7
sS'8040'
p2662
I11
sS'8042'
p2663
I5
sS'8209'
p2664
I3
sS'8207'
p2665
I2
sS'8202'
p2666
I2
sS'8282'
p2667
I1
sS'8280'
p2668
I1
sS'8281'
p2669
I1
sS'8127'
p2670
I1
sS'8122'
p2671
I1
sS'8121'
p2672
I1
sS'34'
p2673
I3
sS'8052'
p2674
I1
sS'8050'
p2675
I1
sS'2613'
p2676
I1
sS'8056'
p2677
I1
sS'8055'
p2678
I1
sS'8054'
p2679
I2
sS'8058'
p2680
I4
sS'8215'
p2681
I2
sS'8217'
p2682
I2
sS'8243'
p2683
I2
sS'8112'
p2684
I1
sS'8113'
p2685
I2
sS'8116'
p2686
I1
sS'8117'
p2687
I2
sS'8114'
p2688
I1
sS'8115'
p2689
I2
sS'8240'
p2690
I3
sS'8241'
p2691
I4
sS'5941'
p2692
I4
sS'3364'
p2693
I13
sS'4533'
p2694
I5
sS'7981'
p2695
I2
sS'7982'
p2696
I10
sS'7983'
p2697
I2
sS'7987'
p2698
I6
sS'7988'
p2699
I601
sS'7989'
p2700
I13
sS'8245'
p2701
I3
sS'8105'
p2702
I1
sS'8107'
p2703
I2
sS'8238'
p2704
I2
sS'8068'
p2705
I1
sS'8069'
p2706
I7
sS'8067'
p2707
I1
sS'8064'
p2708
I2
sS'8109'
p2709
I1
sS'8063'
p2710
I1
sS'8061'
p2711
I3
sS'7486'
p2712
I1
sS'8268'
p2713
I2
sS'8269'
p2714
I2
sS'7845'
p2715
I1
sS'8265'
p2716
I2
sS'8266'
p2717
I2
sS'8267'
p2718
I2
sS'8260'
p2719
I2
sS'8261'
p2720
I2
sS'4778'
p2721
I1
sS'8263'
p2722
I2
sS'8188'
p2723
I3
sS'3680'
p2724
I10
sS'7993'
p2725
I7
sS'7991'
p2726
I1
sS'7990'
p2727
I6
sS'7997'
p2728
I3
sS'7996'
p2729
I2
sS'7995'
p2730
I2
sS'7994'
p2731
I2
sS'7999'
p2732
I3
sS'8078'
p2733
I1
sS'8176'
p2734
I1
sS'8177'
p2735
I1
sS'8070'
p2736
I2
sS'8072'
p2737
I1
sS'8074'
p2738
I1
sS'8077'
p2739
I1
sS'8076'
p2740
I2
sS'8163'
p2741
I2
sS'8279'
p2742
I1
sS'8274'
p2743
I1
sS'8273'
p2744
I1
sS'2942'
p2745
I3
sS'8271'
p2746
I2
sS'8270'
p2747
I2
sS'8272'
p2748
I2
sS'3974'
p2749
I6
sS'8264'
p2750
I2
sS'4259'
p2751
I21
sS'8160'
p2752
I1
sS'8062'
p2753
I1
sS'8169'
p2754
I1
sS'8108'
p2755
I4
sS'8249'
p2756
I2
sS'8008'
p2757
I1
sS'8009'
p2758
I1
sS'8242'
p2759
I2
sS'8005'
p2760
I2
sS'8006'
p2761
I7
sS'8007'
p2762
I2
sS'8000'
p2763
I2
sS'8001'
p2764
I3
sS'8244'
p2765
I5
sS'8003'
p2766
I1
sS'8084'
p2767
I1
sS'8085'
p2768
I1
sS'8086'
p2769
I1
sS'8087'
p2770
I1
sS'8080'
p2771
I3
sS'8081'
p2772
I1
sS'8082'
p2773
I7
sS'8089'
p2774
I4
sa(dp2775
S'8304'
p2776
I1
sS'8290'
p2777
I1
sS'8309'
p2778
I1
sS'3420'
p2779
I1
sS'8305'
p2780
I5
sS'8294'
p2781
I1
sS'8286'
p2782
I1
sS'8287'
p2783
I3
sS'1534'
p2784
I1
sS'8285'
p2785
I1
sS'8303'
p2786
I1
sS'8302'
p2787
I1
sS'8301'
p2788
I2
sS'8300'
p2789
I1
sS'8292'
p2790
I2
sS'8295'
p2791
I1
sS'8288'
p2792
I2
sS'8289'
p2793
I1
sa(dp2794
S'8317'
p2795
I5
sS'8318'
p2796
I1
sa(dp2797
S'8349'
p2798
I1
sS'8348'
p2799
I1
sS'8343'
p2800
I1
sS'8342'
p2801
I1
sS'8341'
p2802
I1
sS'8340'
p2803
I1
sS'8347'
p2804
I1
sS'8346'
p2805
I1
sS'8345'
p2806
I1
sS'8344'
p2807
I1
sS'8326'
p2808
I1
sS'7151'
p2809
I1
sS'8327'
p2810
I4
sS'8352'
p2811
I1
sS'8332'
p2812
I1
sS'8333'
p2813
I1
sS'8330'
p2814
I1
sS'8331'
p2815
I1
sS'8336'
p2816
I1
sS'8337'
p2817
I1
sS'8334'
p2818
I1
sS'8335'
p2819
I1
sS'8350'
p2820
I1
sS'8351'
p2821
I1
sS'8338'
p2822
I1
sS'8339'
p2823
I1
sa(dp2824
S'8361'
p2825
I2
sS'8360'
p2826
I2
sS'8363'
p2827
I6
sS'8362'
p2828
I2
sS'8365'
p2829
I1
sS'8364'
p2830
I1
sS'8367'
p2831
I2
sS'8366'
p2832
I4
sS'8369'
p2833
I1
sS'8368'
p2834
I1
sS'8384'
p2835
I1
sS'8383'
p2836
I1
sS'8374'
p2837
I2
sS'8378'
p2838
I1
sS'8379'
p2839
I1
sS'8359'
p2840
I2
sS'8372'
p2841
I2
sS'8376'
p2842
I1
sS'8355'
p2843
I9
sS'8373'
p2844
I2
sa(dp2845
S'4303'
p2846
I5
sS'8426'
p2847
I2
sS'8424'
p2848
I4
sS'8425'
p2849
I7
sS'8423'
p2850
I5
sS'8389'
p2851
I50
sS'8427'
p2852
I1
sS'8428'
p2853
I1
sS'8429'
p2854
I4
sS'6727'
p2855
I1
sS'8541'
p2856
I1
sS'8543'
p2857
I1
sS'8420'
p2858
I6
sS'8421'
p2859
I4
sS'8493'
p2860
I1
sS'8492'
p2861
I1
sS'8491'
p2862
I1
sS'8490'
p2863
I1
sS'8497'
p2864
I1
sS'8496'
p2865
I1
sS'8495'
p2866
I1
sS'8494'
p2867
I1
sS'8499'
p2868
I1
sS'8498'
p2869
I1
sS'8431'
p2870
I3
sS'8430'
p2871
I4
sS'8433'
p2872
I2
sS'8432'
p2873
I5
sS'8435'
p2874
I5
sS'8434'
p2875
I4
sS'8436'
p2876
I3
sS'8439'
p2877
I6
sS'8538'
p2878
I1
sS'8539'
p2879
I1
sS'8530'
p2880
I3
sS'8531'
p2881
I2
sS'8532'
p2882
I3
sS'8533'
p2883
I2
sS'8534'
p2884
I2
sS'8444'
p2885
I1
sS'8445'
p2886
I2
sS'8446'
p2887
I2
sS'8447'
p2888
I1
sS'8441'
p2889
I1
sS'8443'
p2890
I2
sS'8523'
p2891
I1
sS'8522'
p2892
I1
sS'8521'
p2893
I2
sS'8520'
p2894
I1
sS'8448'
p2895
I1
sS'8449'
p2896
I1
sS'8525'
p2897
I2
sS'8516'
p2898
I3
sS'8517'
p2899
I1
sS'8514'
p2900
I1
sS'8515'
p2901
I2
sS'8512'
p2902
I1
sS'8513'
p2903
I1
sS'8510'
p2904
I1
sS'8511'
p2905
I1
sS'8518'
p2906
I1
sS'8519'
p2907
I2
sS'8457'
p2908
I1
sS'8456'
p2909
I1
sS'8455'
p2910
I1
sS'8454'
p2911
I5
sS'8453'
p2912
I1
sS'8452'
p2913
I1
sS'8451'
p2914
I1
sS'8450'
p2915
I1
sS'6979'
p2916
I2
sS'8459'
p2917
I1
sS'8458'
p2918
I1
sS'1725'
p2919
I2
sS'1008'
p2920
I4
sS'8501'
p2921
I1
sS'8500'
p2922
I1
sS'8503'
p2923
I1
sS'8502'
p2924
I1
sS'8505'
p2925
I1
sS'8504'
p2926
I1
sS'8507'
p2927
I1
sS'8506'
p2928
I1
sS'8509'
p2929
I1
sS'8508'
p2930
I1
sS'8462'
p2931
I3
sS'8463'
p2932
I3
sS'8460'
p2933
I1
sS'8461'
p2934
I1
sS'8466'
p2935
I1
sS'8467'
p2936
I1
sS'8464'
p2937
I1
sS'8465'
p2938
I1
sS'8468'
p2939
I1
sS'8469'
p2940
I1
sS'2819'
p2941
I3
sS'8575'
p2942
I1
sS'8576'
p2943
I1
sS'8577'
p2944
I1
sS'8479'
p2945
I3
sS'8478'
p2946
I1
sS'8475'
p2947
I1
sS'8474'
p2948
I1
sS'8477'
p2949
I1
sS'8476'
p2950
I1
sS'8471'
p2951
I1
sS'8470'
p2952
I2
sS'8473'
p2953
I1
sS'8472'
p2954
I1
sS'8189'
p2955
I5
sS'8529'
p2956
I2
sS'8528'
p2957
I3
sS'1166'
p2958
I6
sS'8408'
p2959
I6
sS'8409'
p2960
I6
sS'8400'
p2961
I6
sS'8401'
p2962
I6
sS'8402'
p2963
I6
sS'8403'
p2964
I6
sS'8404'
p2965
I6
sS'8405'
p2966
I6
sS'8406'
p2967
I7
sS'8407'
p2968
I6
sS'4690'
p2969
I5
sS'6419'
p2970
I8
sS'1812'
p2971
I4
sS'8527'
p2972
I2
sS'8526'
p2973
I3
sS'8398'
p2974
I6
sS'8399'
p2975
I6
sS'8394'
p2976
I6
sS'8395'
p2977
I6
sS'8396'
p2978
I6
sS'8397'
p2979
I7
sS'8390'
p2980
I4
sS'8391'
p2981
I3
sS'8392'
p2982
I1
sS'8393'
p2983
I1
sS'8419'
p2984
I6
sS'8418'
p2985
I7
sS'3350'
p2986
I1
sS'8413'
p2987
I6
sS'8412'
p2988
I6
sS'8411'
p2989
I6
sS'8410'
p2990
I6
sS'8417'
p2991
I6
sS'8416'
p2992
I6
sS'8415'
p2993
I6
sS'8414'
p2994
I6
sS'8480'
p2995
I1
sS'8481'
p2996
I1
sS'8482'
p2997
I1
sS'8483'
p2998
I1
sS'8484'
p2999
I1
sS'8485'
p3000
I1
sS'8486'
p3001
I1
sS'8487'
p3002
I1
sS'8488'
p3003
I1
sS'8489'
p3004
I1
sa(dp3005
S'8601'
p3006
I2
sS'8603'
p3007
I1
sS'8600'
p3008
I2
sS'3482'
p3009
I1
sS'27'
p3010
I1
sS'8617'
p3011
I1
sS'8609'
p3012
I1
sS'8611'
p3013
I2
sS'8613'
p3014
I2
sS'8612'
p3015
I1
sS'8597'
p3016
I5
sS'8590'
p3017
I54
sa(dp3018
S'8628'
p3019
I1
sS'8624'
p3020
I2
sS'8627'
p3021
I5
sS'8632'
p3022
I1
sS'8631'
p3023
I1
sS'8630'
p3024
I1
sS'8623'
p3025
I2
sa(dp3026
S'8436'
p3027
I3
sS'8651'
p3028
I2
sS'8650'
p3029
I2
sS'8653'
p3030
I2
sS'8652'
p3031
I2
sS'8654'
p3032
I2
sS'8638'
p3033
I6
sS'8637'
p3034
I1
sS'8636'
p3035
I1
sS'8635'
p3036
I1
sS'8634'
p3037
I2
sS'4684'
p3038
I1
sS'5367'
p3039
I2
sS'1431'
p3040
I2
sS'8661'
p3041
I1
sS'8662'
p3042
I1
sS'8663'
p3043
I1
sS'8646'
p3044
I1
sS'8647'
p3045
I1
sS'8645'
p3046
I1
sS'8640'
p3047
I1
sS'8641'
p3048
I3
sa(dp3049
S'8682'
p3050
I1
sS'8700'
p3051
I1
sS'8696'
p3052
I1
sS'6417'
p3053
I4
sS'8694'
p3054
I1
sS'1587'
p3055
I2
sS'8673'
p3056
I1
sS'8683'
p3057
I1
sS'8681'
p3058
I1
sS'8677'
p3059
I1
sS'8698'
p3060
I1
sS'8674'
p3061
I2
sS'8695'
p3062
I1
sS'8664'
p3063
I76
sS'8688'
p3064
I2
sS'8689'
p3065
I2
sS'8697'
p3066
I1
sa(dp3067
S'8789'
p3068
I1
sS'8784'
p3069
I1
sS'8713'
p3070
I2
sS'8714'
p3071
I2
sS'8715'
p3072
I2
sS'8716'
p3073
I2
sS'8717'
p3074
I2
sS'8718'
p3075
I2
sS'8719'
p3076
I2
sS'8730'
p3077
I2
sS'8731'
p3078
I2
sS'8779'
p3079
I2
sS'8773'
p3080
I1
sS'7089'
p3081
I6
sS'8729'
p3082
I2
sS'8728'
p3083
I5
sS'8706'
p3084
I1
sS'8705'
p3085
I3
sS'8810'
p3086
I1
sS'8721'
p3087
I2
sS'8720'
p3088
I2
sS'8722'
p3089
I2
sS'8724'
p3090
I188
sS'8727'
p3091
I1
sa(dp3092
S'9076'
p3093
I1
sS'9077'
p3094
I2
sS'9074'
p3095
I1
sS'9072'
p3096
I1
sS'9071'
p3097
I1
sS'9079'
p3098
I1
sS'93'
p3099
I27
sS'8866'
p3100
I7
sS'8867'
p3101
I9
sS'8864'
p3102
I7
sS'8865'
p3103
I26
sS'8862'
p3104
I7
sS'8863'
p3105
I8
sS'8860'
p3106
I16
sS'8861'
p3107
I7
sS'9280'
p3108
I1
sS'8868'
p3109
I7
sS'8869'
p3110
I7
sS'8909'
p3111
I1
sS'8905'
p3112
I7
sS'8904'
p3113
I7
sS'8906'
p3114
I3
sS'8901'
p3115
I7
sS'8900'
p3116
I7
sS'8903'
p3117
I7
sS'8902'
p3118
I7
sS'1062'
p3119
I1
sS'8838'
p3120
I16
sS'9155'
p3121
I1
sS'9157'
p3122
I1
sS'9156'
p3123
I4
sS'9151'
p3124
I1
sS'9259'
p3125
I1
sS'9256'
p3126
I1
sS'9255'
p3127
I3
sS'9158'
p3128
I1
sS'9289'
p3129
I1
sS'8831'
p3130
I9
sS'9411'
p3131
I1
sS'9414'
p3132
I1
sS'9415'
p3133
I1
sS'9416'
p3134
I1
sS'9417'
p3135
I1
sS'9418'
p3136
I1
sS'9419'
p3137
I1
sS'2615'
p3138
I13
sS'9328'
p3139
I3
sS'9329'
p3140
I3
sS'9322'
p3141
I28
sS'9320'
p3142
I1
sS'9321'
p3143
I1
sS'9325'
p3144
I1
sS'8941'
p3145
I3
sS'8940'
p3146
I6
sS'8947'
p3147
I10
sS'8946'
p3148
I2
sS'8949'
p3149
I21
sS'8948'
p3150
I15
sS'9029'
p3151
I2
sS'9028'
p3152
I1
sS'9025'
p3153
I1
sS'9024'
p3154
I1
sS'9027'
p3155
I1
sS'9021'
p3156
I1
sS'9020'
p3157
I6
sS'9023'
p3158
I1
sS'9022'
p3159
I4
sS'5951'
p3160
I2
sS'8899'
p3161
I7
sS'8951'
p3162
I2
sS'8839'
p3163
I7
sS'8931'
p3164
I1
sS'8933'
p3165
I1
sS'8834'
p3166
I1
sS'8837'
p3167
I17
sS'8836'
p3168
I8
sS'8938'
p3169
I1
sS'8939'
p3170
I4
sS'8833'
p3171
I17
sS'8832'
p3172
I11
sS'9180'
p3173
I2
sS'2346'
p3174
I23
sS'9189'
p3175
I1
sS'9112'
p3176
I2
sS'9117'
p3177
I1
sS'9205'
p3178
I1
sS'9204'
p3179
I1
sS'9206'
p3180
I2
sS'6912'
p3181
I13
sS'8985'
p3182
I2
sS'8984'
p3183
I1
sS'8987'
p3184
I1
sS'8986'
p3185
I1
sS'8981'
p3186
I2
sS'8980'
p3187
I1
sS'8982'
p3188
I1
sS'9164'
p3189
I1
sS'9165'
p3190
I1
sS'9167'
p3191
I1
sS'7457'
p3192
I1
sS'9061'
p3193
I1
sS'9067'
p3194
I5
sS'9069'
p3195
I3
sS'9068'
p3196
I4
sS'8871'
p3197
I7
sS'8870'
p3198
I8
sS'8873'
p3199
I7
sS'8872'
p3200
I7
sS'8875'
p3201
I16
sS'8874'
p3202
I7
sS'8877'
p3203
I7
sS'8876'
p3204
I8
sS'8879'
p3205
I7
sS'8878'
p3206
I7
sS'8978'
p3207
I2
sS'8976'
p3208
I1
sS'8977'
p3209
I2
sS'9015'
p3210
I2
sS'9016'
p3211
I8
sS'9017'
p3212
I4
sS'9010'
p3213
I1
sS'9013'
p3214
I2
sS'9018'
p3215
I4
sS'9019'
p3216
I1
sS'9384'
p3217
I1
sS'9385'
p3218
I1
sS'9387'
p3219
I1
sS'9382'
p3220
I1
sS'9383'
p3221
I1
sS'9388'
p3222
I1
sS'1226'
p3223
I6
sS'9124'
p3224
I2
sS'9125'
p3225
I2
sS'9126'
p3226
I1
sS'9127'
p3227
I2
sS'9128'
p3228
I1
sS'9129'
p3229
I2
sS'9242'
p3230
I2
sS'9245'
p3231
I3
sS'9247'
p3232
I1
sS'3690'
p3233
I12
sS'9403'
p3234
I2
sS'9402'
p3235
I1
sS'9401'
p3236
I1
sS'9400'
p3237
I1
sS'9407'
p3238
I1
sS'8612'
p3239
I5
sS'9335'
p3240
I2
sS'9337'
p3241
I2
sS'9336'
p3242
I3
sS'9331'
p3243
I3
sS'9330'
p3244
I4
sS'9333'
p3245
I5
sS'9332'
p3246
I3
sS'9339'
p3247
I2
sS'9338'
p3248
I2
sS'9239'
p3249
I3
sS'9230'
p3250
I4
sS'7564'
p3251
I1
sS'8188'
p3252
I1
sS'9058'
p3253
I6
sS'9051'
p3254
I7
sS'9053'
p3255
I5
sS'9054'
p3256
I1
sS'8848'
p3257
I8
sS'8926'
p3258
I7
sS'8925'
p3259
I56
sS'8923'
p3260
I31
sS'8921'
p3261
I2
sS'8920'
p3262
I1
sS'8840'
p3263
I22
sS'8842'
p3264
I5
sS'8843'
p3265
I25
sS'8844'
p3266
I6
sS'8845'
p3267
I8
sS'8929'
p3268
I1
sS'8928'
p3269
I4
sS'3475'
p3270
I4
sS'2231'
p3271
I19
sS'1682'
p3272
I3
sS'9274'
p3273
I1
sS'9278'
p3274
I2
sS'9279'
p3275
I2
sS'9373'
p3276
I3
sS'9375'
p3277
I1
sS'9374'
p3278
I1
sS'9376'
p3279
I1
sS'4768'
p3280
I2
sS'9179'
p3281
I1
sS'9178'
p3282
I1
sS'9175'
p3283
I3
sS'9168'
p3284
I2
sS'9169'
p3285
I3
sS'9095'
p3286
I1
sS'9097'
p3287
I1
sS'9090'
p3288
I1
sS'9091'
p3289
I4
sS'9093'
p3290
I1
sS'9308'
p3291
I1
sS'9309'
p3292
I1
sS'9304'
p3293
I1
sS'9305'
p3294
I1
sS'9306'
p3295
I1
sS'9307'
p3296
I1
sS'9300'
p3297
I1
sS'9301'
p3298
I1
sS'9302'
p3299
I1
sS'9303'
p3300
I1
sS'4283'
p3301
I3
sS'8888'
p3302
I7
sS'8889'
p3303
I7
sS'8884'
p3304
I7
sS'8885'
p3305
I7
sS'8886'
p3306
I7
sS'8887'
p3307
I7
sS'8880'
p3308
I7
sS'8881'
p3309
I7
sS'8882'
p3310
I7
sS'8883'
p3311
I7
sS'8965'
p3312
I3
sS'9007'
p3313
I2
sS'9006'
p3314
I2
sS'9002'
p3315
I5
sS'9397'
p3316
I1
sS'9393'
p3317
I1
sS'9392'
p3318
I1
sS'9391'
p3319
I1
sS'9390'
p3320
I2
sS'9399'
p3321
I2
sS'9398'
p3322
I1
sS'8819'
p3323
I9
sS'8818'
p3324
I5
sS'9132'
p3325
I1
sS'9430'
p3326
I1
sS'9431'
p3327
I1
sS'9340'
p3328
I8
sS'9341'
p3329
I2
sS'9342'
p3330
I4
sS'9343'
p3331
I2
sS'9344'
p3332
I2
sS'9345'
p3333
I7
sS'9346'
p3334
I5
sS'9348'
p3335
I2
sS'9349'
p3336
I2
sS'9229'
p3337
I4
sS'9228'
p3338
I4
sS'9227'
p3339
I4
sS'9226'
p3340
I4
sS'9225'
p3341
I4
sS'9224'
p3342
I4
sS'9223'
p3343
I4
sS'9222'
p3344
I4
sS'9221'
p3345
I4
sS'9220'
p3346
I4
sS'9049'
p3347
I2
sS'9043'
p3348
I1
sS'9042'
p3349
I2
sS'9041'
p3350
I2
sS'9047'
p3351
I1
sS'9046'
p3352
I2
sS'9292'
p3353
I1
sS'9293'
p3354
I1
sS'9290'
p3355
I1
sS'9291'
p3356
I1
sS'9296'
p3357
I1
sS'9297'
p3358
I1
sS'9294'
p3359
I1
sS'9295'
p3360
I1
sS'9298'
p3361
I1
sS'9299'
p3362
I1
sS'3220'
p3363
I6
sS'8859'
p3364
I16
sS'8858'
p3365
I7
sS'8917'
p3366
I9
sS'8852'
p3367
I7
sS'8851'
p3368
I2
sS'8856'
p3369
I1111
sS'8855'
p3370
I133
sS'8854'
p3371
I8
sS'3975'
p3372
I1
sS'3139'
p3373
I9
sS'8846'
p3374
I12
sS'8847'
p3375
I8
sS'9260'
p3376
I1
sS'9264'
p3377
I1
sS'2772'
p3378
I13
sS'9149'
p3379
I5
sS'9142'
p3380
I1
sS'9140'
p3381
I1
sS'9141'
p3382
I1
sS'9147'
p3383
I1
sS'9144'
p3384
I1
sS'9145'
p3385
I1
sS'9089'
p3386
I2
sS'9087'
p3387
I3
sS'9086'
p3388
I10
sS'9084'
p3389
I1
sS'9083'
p3390
I2
sS'9080'
p3391
I3
sS'9319'
p3392
I1
sS'9318'
p3393
I1
sS'9317'
p3394
I1
sS'9316'
p3395
I1
sS'9315'
p3396
I1
sS'9314'
p3397
I2
sS'9313'
p3398
I2
sS'9312'
p3399
I1
sS'9311'
p3400
I1
sS'9310'
p3401
I1
sS'8950'
p3402
I13
sS'8898'
p3403
I7
sS'8897'
p3404
I7
sS'8896'
p3405
I11
sS'8895'
p3406
I7
sS'8894'
p3407
I16
sS'8893'
p3408
I7
sS'8892'
p3409
I7
sS'8891'
p3410
I7
sS'8890'
p3411
I7
sS'9032'
p3412
I4
sS'9030'
p3413
I1
sS'9031'
p3414
I3
sS'9034'
p3415
I1
sS'9035'
p3416
I1
sS'8822'
p3417
I5
sS'8823'
p3418
I10
sS'8820'
p3419
I2
sS'8826'
p3420
I18
sS'8827'
p3421
I43
sS'8824'
p3422
I11
sS'8825'
p3423
I3
sS'8829'
p3424
I9
sS'9108'
p3425
I4
sS'9109'
p3426
I1
sS'9103'
p3427
I6
sS'4241'
p3428
I2
sS'8995'
p3429
I9
sS'9421'
p3430
I1
sS'9420'
p3431
I1
sS'9423'
p3432
I1
sS'9422'
p3433
I1
sS'9427'
p3434
I1
sS'9353'
p3435
I3
sS'9352'
p3436
I3
sS'9351'
p3437
I3
sS'9350'
p3438
I2
sS'9354'
p3439
I1
sS'9190'
p3440
I1
sS'9218'
p3441
I4
sS'9219'
p3442
I4
sS'9212'
p3443
I1
sS'9213'
p3444
I1
sS'9210'
p3445
I1
sS'9216'
p3446
I4
sS'9217'
p3447
I4
sS'8992'
p3448
I1
sS'8993'
p3449
I6
sS'8991'
p3450
I5
sS'8994'
p3451
I2
sS'1808'
p3452
I3
sS'4588'
p3453
I6
sa(dp3454
S'10060'
p3455
I1
sS'9479'
p3456
I1
sS'10066'
p3457
I1
sS'10067'
p3458
I1
sS'10129'
p3459
I1
sS'10065'
p3460
I1
sS'9472'
p3461
I1
sS'9473'
p3462
I11
sS'9470'
p3463
I3
sS'9471'
p3464
I10
sS'9474'
p3465
I1
sS'9675'
p3466
I1
sS'9676'
p3467
I14
sS'9677'
p3468
I1
sS'9670'
p3469
I2
sS'9671'
p3470
I2
sS'9672'
p3471
I2
sS'9673'
p3472
I1
sS'9678'
p3473
I1
sS'10011'
p3474
I1
sS'10186'
p3475
I3
sS'10180'
p3476
I1
sS'9832'
p3477
I2
sS'10017'
p3478
I2
sS'10188'
p3479
I1
sS'9835'
p3480
I3
sS'9560'
p3481
I1
sS'9561'
p3482
I1
sS'9939'
p3483
I1
sS'9563'
p3484
I1
sS'9565'
p3485
I5
sS'9687'
p3486
I3
sS'10196'
p3487
I1
sS'9666'
p3488
I2
sS'9665'
p3489
I1
sS'9663'
p3490
I11
sS'9820'
p3491
I1
sS'9823'
p3492
I1
sS'9989'
p3493
I1
sS'9700'
p3494
I6
sS'9987'
p3495
I1
sS'9703'
p3496
I1
sS'9829'
p3497
I2
sS'9669'
p3498
I2
sS'9906'
p3499
I1
sS'10197'
p3500
I2
sS'10194'
p3501
I1
sS'9545'
p3502
I1
sS'4571'
p3503
I3
sS'9573'
p3504
I4
sS'9571'
p3505
I3
sS'9575'
p3506
I1
sS'9779'
p3507
I3
sS'10015'
p3508
I3
sS'10042'
p3509
I1
sS'10043'
p3510
I1
sS'9851'
p3511
I1
sS'9719'
p3512
I1
sS'9657'
p3513
I9
sS'9654'
p3514
I1
sS'9655'
p3515
I2
sS'9490'
p3516
I4
sS'9491'
p3517
I7
sS'9492'
p3518
I1
sS'9493'
p3519
I30
sS'9494'
p3520
I5
sS'9495'
p3521
I2
sS'3674'
p3522
I6
sS'9911'
p3523
I1
sS'4804'
p3524
I2
sS'9914'
p3525
I1
sS'9917'
p3526
I2
sS'9916'
p3527
I1
sS'9771'
p3528
I1
sS'9465'
p3529
I10
sS'10170'
p3530
I1
sS'9466'
p3531
I3
sS'9461'
p3532
I35
sS'9460'
p3533
I1
sS'9462'
p3534
I2
sS'9789'
p3535
I3
sS'10021'
p3536
I1
sS'9469'
p3537
I2
sS'9540'
p3538
I1
sS'9727'
p3539
I1
sS'9724'
p3540
I1
sS'9529'
p3541
I1
sS'9728'
p3542
I1
sS'9729'
p3543
I37
sS'9843'
p3544
I1
sS'7022'
p3545
I2
sS'9841'
p3546
I1
sS'9649'
p3547
I3
sS'9645'
p3548
I3
sS'9482'
p3549
I4
sS'9481'
p3550
I1
sS'9487'
p3551
I2
sS'9486'
p3552
I5
sS'9484'
p3553
I1
sS'9489'
p3554
I1
sS'9964'
p3555
I1
sS'9965'
p3556
I1
sS'9795'
p3557
I1
sS'9553'
p3558
I5
sS'9732'
p3559
I2
sS'9737'
p3560
I1
sS'9539'
p3561
I1
sS'9739'
p3562
I3
sS'9738'
p3563
I1
sS'9534'
p3564
I6
sS'9533'
p3565
I5
sS'9532'
p3566
I3
sS'9531'
p3567
I9
sS'9530'
p3568
I1
sS'9638'
p3569
I2
sS'9483'
p3570
I8
sS'10020'
p3571
I1
sS'10026'
p3572
I1
sS'9631'
p3573
I7
sS'10025'
p3574
I1
sS'10254'
p3575
I1
sS'9636'
p3576
I4
sS'9637'
p3577
I2
sS'10169'
p3578
I3
sS'9640'
p3579
I3
sS'1038'
p3580
I1
sS'7985'
p3581
I3
sS'9971'
p3582
I1
sS'10223'
p3583
I2
sS'9979'
p3584
I1
sS'10018'
p3585
I1
sS'10154'
p3586
I1
sS'9502'
p3587
I8
sS'9503'
p3588
I1
sS'10249'
p3589
I1
sS'9501'
p3590
I43
sS'9583'
p3591
I3
sS'10019'
p3592
I1
sS'9747'
p3593
I2
sS'9740'
p3594
I1
sS'9742'
p3595
I1
sS'9585'
p3596
I1
sS'9588'
p3597
I1
sS'10241'
p3598
I1
sS'9748'
p3599
I1
sS'10016'
p3600
I1
sS'9625'
p3601
I12
sS'10014'
p3602
I1
sS'1022'
p3603
I1
sS'9852'
p3604
I11
sS'3966'
p3605
I22
sS'9940'
p3606
I1
sS'9941'
p3607
I1
sS'9438'
p3608
I146
sS'9439'
p3609
I14
sS'9437'
p3610
I170
sS'9434'
p3611
I1445
sS'9435'
p3612
I1
sS'9432'
p3613
I3
sS'9433'
p3614
I2435
sS'9821'
p3615
I1
sS'10005'
p3616
I1
sS'9614'
p3617
I1
sS'9615'
p3618
I1
sS'9458'
p3619
I64
sS'9610'
p3620
I2
sS'10168'
p3621
I1
sS'9455'
p3622
I1
sS'9450'
p3623
I10
sS'9452'
p3624
I1
sS'9453'
p3625
I5
sS'9991'
p3626
I1
sS'6747'
p3627
I2
sS'9750'
p3628
I1
sS'9594'
p3629
I3
sS'9596'
p3630
I2
sS'9658'
p3631
I1
sS'9659'
p3632
I2
sS'9818'
p3633
I1
sS'9819'
p3634
I1
sS'9995'
p3635
I1
sS'9816'
p3636
I1
sS'9817'
p3637
I1
sS'9811'
p3638
I1
sS'1446'
p3639
I1
sS'9896'
p3640
I2
sS'9959'
p3641
I2
sS'9954'
p3642
I1
sS'9957'
p3643
I2
sS'9898'
p3644
I3
sS'10260'
p3645
I1
sS'9600'
p3646
I3
sS'8648'
p3647
I1
sS'9607'
p3648
I1
sS'9447'
p3649
I2
sS'9446'
p3650
I15
sS'9880'
p3651
I3
sS'9442'
p3652
I29
sS'9441'
p3653
I272
sS'9440'
p3654
I2
sS'9766'
p3655
I6
sS'9768'
p3656
I3
sS'9807'
p3657
I1
sS'9802'
p3658
I2
sS'9518'
p3659
I1
sS'9515'
p3660
I1
sS'9514'
p3661
I3
sS'9516'
p3662
I2
sS'9698'
p3663
I2
sS'9512'
p3664
I5
sS'9696'
p3665
I3
sS'9921'
p3666
I1
sS'9694'
p3667
I2
sS'9924'
p3668
I1
sS'9693'
p3669
I3
sS'9690'
p3670
I1
sa(dp3671
S'7070'
p3672
I6
sS'10386'
p3673
I2
sS'10519'
p3674
I47
sS'11054'
p3675
I2
sS'3325'
p3676
I1
sS'10512'
p3677
I16
sS'11059'
p3678
I6
sS'10510'
p3679
I16
sS'10511'
p3680
I16
sS'10516'
p3681
I3
sS'10517'
p3682
I7
sS'10514'
p3683
I1
sS'11091'
p3684
I3
sS'11380'
p3685
I3
sS'11382'
p3686
I1
sS'11383'
p3687
I1
sS'11385'
p3688
I3
sS'11442'
p3689
I1
sS'11388'
p3690
I1
sS'11389'
p3691
I1
sS'11113'
p3692
I2
sS'2610'
p3693
I2
sS'6640'
p3694
I19
sS'10580'
p3695
I2
sS'10585'
p3696
I2
sS'10584'
p3697
I2
sS'10586'
p3698
I1
sS'10589'
p3699
I3
sS'10588'
p3700
I2
sS'10527'
p3701
I22
sS'10526'
p3702
I22
sS'10525'
p3703
I11
sS'10523'
p3704
I1
sS'10522'
p3705
I11
sS'10521'
p3706
I14
sS'10520'
p3707
I1
sS'10529'
p3708
I7
sS'10528'
p3709
I6
sS'10880'
p3710
I6
sS'10418'
p3711
I1
sS'10964'
p3712
I6
sS'11021'
p3713
I1
sS'11020'
p3714
I1
sS'11023'
p3715
I1
sS'11022'
p3716
I1
sS'11101'
p3717
I6
sS'10592'
p3718
I5
sS'10613'
p3719
I1
sS'10591'
p3720
I3
sS'10615'
p3721
I1
sS'10617'
p3722
I1
sS'10616'
p3723
I1
sS'10619'
p3724
I1
sS'10618'
p3725
I1
sS'5913'
p3726
I6
sS'10532'
p3727
I4
sS'10534'
p3728
I10
sS'10535'
p3729
I2
sS'10536'
p3730
I1
sS'10691'
p3731
I2
sS'10513'
p3732
I19
sS'10431'
p3733
I1
sS'11208'
p3734
I6
sS'10432'
p3735
I2
sS'10611'
p3736
I1
sS'10347'
p3737
I16
sS'10590'
p3738
I1
sS'11069'
p3739
I2
sS'11444'
p3740
I2
sS'10873'
p3741
I2
sS'10515'
p3742
I1315
sS'10594'
p3743
I1
sS'10334'
p3744
I2
sS'10595'
p3745
I1
sS'10545'
p3746
I14
sS'10544'
p3747
I2
sS'10428'
p3748
I3
sS'10546'
p3749
I17
sS'10541'
p3750
I19
sS'11217'
p3751
I1
sS'10543'
p3752
I3
sS'10542'
p3753
I4
sS'10422'
p3754
I10
sS'11151'
p3755
I2
sS'11081'
p3756
I1
sS'11003'
p3757
I1
sS'11212'
p3758
I2
sS'11006'
p3759
I1
sS'11213'
p3760
I15
sS'11353'
p3761
I2
sS'11387'
p3762
I2
sS'11357'
p3763
I2
sS'11210'
p3764
I3
sS'11355'
p3765
I3
sS'11354'
p3766
I2
sS'11211'
p3767
I4
sS'10756'
p3768
I2
sS'10638'
p3769
I4
sS'10637'
p3770
I1
sS'11216'
p3771
I1
sS'10635'
p3772
I15
sS'11090'
p3773
I1
sS'10658'
p3774
I1
sS'1220'
p3775
I47
sS'10655'
p3776
I1
sS'10654'
p3777
I7
sS'11215'
p3778
I1
sS'11098'
p3779
I1
sS'11099'
p3780
I1
sS'10652'
p3781
I1
sS'10556'
p3782
I1
sS'11345'
p3783
I4
sS'10552'
p3784
I17
sS'10553'
p3785
I14
sS'11229'
p3786
I1
sS'10551'
p3787
I1
sS'11222'
p3788
I1
sS'10558'
p3789
I4
sS'10388'
p3790
I2
sS'10855'
p3791
I3
sS'11018'
p3792
I1
sS'11019'
p3793
I1
sS'10998'
p3794
I5
sS'11015'
p3795
I1
sS'11016'
p3796
I1
sS'11017'
p3797
I1
sS'11011'
p3798
I2
sS'8824'
p3799
I2
sS'10620'
p3800
I1
sS'2366'
p3801
I68
sS'10622'
p3802
I1
sS'11422'
p3803
I1
sS'10627'
p3804
I1
sS'10319'
p3805
I1
sS'6804'
p3806
I15
sS'10645'
p3807
I3
sS'10317'
p3808
I6
sS'11331'
p3809
I7
sS'10562'
p3810
I8
sS'10567'
p3811
I4
sS'10566'
p3812
I3
sS'10564'
p3813
I2
sS'11339'
p3814
I1
sS'10569'
p3815
I3
sS'10568'
p3816
I7
sS'10378'
p3817
I6
sS'11518'
p3818
I2
sS'10840'
p3819
I3
sS'11061'
p3820
I2
sS'11532'
p3821
I3
sS'11390'
p3822
I3
sS'11065'
p3823
I1
sS'10710'
p3824
I4
sS'11426'
p3825
I1
sS'11232'
p3826
I10
sS'11435'
p3827
I1
sS'11516'
p3828
I1
sS'11511'
p3829
I3
sS'11356'
p3830
I2
sS'11323'
p3831
I6
sS'11320'
p3832
I2
sS'11321'
p3833
I2
sS'11521'
p3834
I2
sS'10574'
p3835
I1
sS'10577'
p3836
I1
sS'10570'
p3837
I1
sS'10571'
p3838
I3
sS'10573'
p3839
I1
sS'11407'
p3840
I2
sS'11406'
p3841
I2
sS'11405'
p3842
I1
sS'11404'
p3843
I1
sS'11403'
p3844
I25
sS'11402'
p3845
I1
sS'11401'
p3846
I2
sS'11400'
p3847
I8
sS'11072'
p3848
I1
sS'11076'
p3849
I1
sS'11077'
p3850
I2
sS'11074'
p3851
I6
sS'11512'
p3852
I4
sS'10931'
p3853
I4
sS'11214'
p3854
I1
sS'11498'
p3855
I2
sS'11319'
p3856
I2
sS'11318'
p3857
I2
sS'11317'
p3858
I1
sS'11316'
p3859
I2
sS'11315'
p3860
I2
sS'4460'
p3861
I1
sS'11397'
p3862
I1
sS'11396'
p3863
I1
sS'11395'
p3864
I1
sS'11393'
p3865
I1
sS'11392'
p3866
I1
sS'11239'
p3867
I4
sS'11254'
p3868
I2
sS'11399'
p3869
I1
sa(dp3870
S'11828'
p3871
I1
sS'11825'
p3872
I1
sS'11824'
p3873
I1
sS'11827'
p3874
I1
sS'11826'
p3875
I1
sS'11823'
p3876
I1
sS'11542'
p3877
I1
sS'11543'
p3878
I1
sS'11540'
p3879
I3
sS'11541'
p3880
I6
sS'11547'
p3881
I12
sS'11544'
p3882
I1
sS'11545'
p3883
I1
sS'11548'
p3884
I22
sS'11549'
p3885
I27
sS'11814'
p3886
I1
sS'11667'
p3887
I3
sS'11665'
p3888
I3
sS'11664'
p3889
I3
sS'11663'
p3890
I3
sS'11661'
p3891
I3
sS'11660'
p3892
I3
sS'11669'
p3893
I4
sS'11911'
p3894
I1
sS'11910'
p3895
I1
sS'1373'
p3896
I37
sS'11871'
p3897
I4
sS'11709'
p3898
I3
sS'11704'
p3899
I1
sS'11705'
p3900
I4
sS'11706'
p3901
I13
sS'11707'
p3902
I4
sS'11700'
p3903
I3
sS'11701'
p3904
I3
sS'11702'
p3905
I3
sS'11939'
p3906
I1
sS'11838'
p3907
I1
sS'11839'
p3908
I2
sS'11836'
p3909
I1
sS'11834'
p3910
I1
sS'11835'
p3911
I1
sS'11832'
p3912
I1
sS'11833'
p3913
I1
sS'11830'
p3914
I1
sS'11831'
p3915
I1
sS'8650'
p3916
I3
sS'11579'
p3917
I5
sS'11578'
p3918
I1
sS'11577'
p3919
I1
sS'11576'
p3920
I2
sS'11575'
p3921
I1
sS'11574'
p3922
I1
sS'11573'
p3923
I9
sS'11878'
p3924
I4
sS'11571'
p3925
I10
sS'11570'
p3926
I7
sS'11670'
p3927
I3
sS'11672'
p3928
I3
sS'11879'
p3929
I4
sS'11674'
p3930
I4
sS'11676'
p3931
I18
sS'11677'
p3932
I1
sS'11679'
p3933
I3
sS'56'
p3934
I1
sS'11955'
p3935
I1
sS'4644'
p3936
I3
sS'11902'
p3937
I2
sS'11903'
p3938
I3
sS'11900'
p3939
I1
sS'11901'
p3940
I1
sS'11904'
p3941
I3
sS'11817'
p3942
I2
sS'11772'
p3943
I1
sS'11809'
p3944
I1
sS'11808'
p3945
I1
sS'11803'
p3946
I1
sS'11801'
p3947
I2
sS'11800'
p3948
I3
sS'11807'
p3949
I1
sS'11806'
p3950
I1
sS'11805'
p3951
I1
sS'11804'
p3952
I1
sS'11568'
p3953
I6
sS'11569'
p3954
I9
sS'11881'
p3955
I4
sS'11880'
p3956
I4
sS'11887'
p3957
I4
sS'11886'
p3958
I4
sS'11885'
p3959
I4
sS'11810'
p3960
I1
sS'11560'
p3961
I8
sS'2825'
p3962
I3
sS'11562'
p3963
I5
sS'11563'
p3964
I5
sS'11564'
p3965
I3
sS'11565'
p3966
I6
sS'11566'
p3967
I8
sS'11567'
p3968
I6
sS'11689'
p3969
I4
sS'11688'
p3970
I4
sS'11778'
p3971
I1
sS'11685'
p3972
I3
sS'11687'
p3973
I3
sS'11681'
p3974
I3
sS'11680'
p3975
I4
sS'11682'
p3976
I3
sS'11605'
p3977
I3
sS'11604'
p3978
I4
sS'11768'
p3979
I1
sS'11606'
p3980
I6
sS'11601'
p3981
I1
sS'11600'
p3982
I6
sS'11603'
p3983
I1
sS'11602'
p3984
I5
sS'11762'
p3985
I1
sS'11638'
p3986
I3
sS'11883'
p3987
I1
sS'11609'
p3988
I5
sS'11608'
p3989
I6
sS'11639'
p3990
I3
sS'11747'
p3991
I1
sS'8042'
p3992
I5
sS'11959'
p3993
I1
sS'11958'
p3994
I1
sS'9087'
p3995
I9
sS'11954'
p3996
I1
sS'11957'
p3997
I1
sS'11956'
p3998
I1
sS'11951'
p3999
I1
sS'11953'
p4000
I1
sS'11952'
p4001
I1
sS'11869'
p4002
I1
sS'11898'
p4003
I3
sS'11899'
p4004
I4
sS'11894'
p4005
I4
sS'11895'
p4006
I4
sS'11896'
p4007
I1
sS'11897'
p4008
I1
sS'11890'
p4009
I1
sS'11891'
p4010
I3
sS'11892'
p4011
I1
sS'11893'
p4012
I4
sS'11698'
p4013
I3
sS'11696'
p4014
I3
sS'11697'
p4015
I4
sS'11694'
p4016
I3
sS'11695'
p4017
I4
sS'11692'
p4018
I3
sS'11690'
p4019
I3
sS'11691'
p4020
I4
sS'11616'
p4021
I1
sS'11594'
p4022
I10
sS'11614'
p4023
I3
sS'11615'
p4024
I4
sS'11591'
p4025
I5
sS'11590'
p4026
I4
sS'11593'
p4027
I4
sS'11592'
p4028
I5
sS'11599'
p4029
I6
sS'11598'
p4030
I3
sS'11618'
p4031
I1
sS'11619'
p4032
I2
sS'4267'
p4033
I5
sS'11943'
p4034
I1
sS'11815'
p4035
I1
sS'11864'
p4036
I3
sS'11620'
p4037
I1
sS'174'
p4038
I5
sS'11586'
p4039
I4
sS'11622'
p4040
I1
sS'11621'
p4041
I1
sS'11623'
p4042
I1
sS'11587'
p4043
I1
sS'11584'
p4044
I4
sS'11585'
p4045
I1
sS'11582'
p4046
I4
sS'11626'
p4047
I1
sS'11625'
p4048
I1
sS'11581'
p4049
I1
sS'3084'
p4050
I1
sS'11629'
p4051
I5
sS'11628'
p4052
I4
sS'8619'
p4053
I10
sS'11819'
p4054
I1
sS'11588'
p4055
I4
sS'11583'
p4056
I4
sS'11912'
p4057
I1
sS'11812'
p4058
I1
sS'11580'
p4059
I11
sS'11624'
p4060
I1
sS'4150'
p4061
I2
sS'11850'
p4062
I1
sS'11851'
p4063
I1
sS'11852'
p4064
I1
sS'11856'
p4065
I2
sS'11873'
p4066
I4
sS'11539'
p4067
I6
sS'11853'
p4068
I1
sS'11882'
p4069
I1
sS'11854'
p4070
I1
sS'11811'
p4071
I1
sS'11855'
p4072
I2
sS'11933'
p4073
I1
sS'11731'
p4074
I3
sS'11730'
p4075
I3
sS'11732'
p4076
I4
sS'11634'
p4077
I3
sS'11635'
p4078
I4
sS'11636'
p4079
I3
sS'11589'
p4080
I1
sS'11630'
p4081
I3
sS'11738'
p4082
I1
sS'11632'
p4083
I3
sS'4818'
p4084
I1
sS'11884'
p4085
I3
sS'4619'
p4086
I1
sS'11640'
p4087
I1
sS'11561'
p4088
I8
sS'11889'
p4089
I3
sS'11888'
p4090
I1
sS'1811'
p4091
I5
sS'11848'
p4092
I1
sS'5722'
p4093
I5
sS'11816'
p4094
I1
sS'11597'
p4095
I3
sS'11872'
p4096
I4
sS'11727'
p4097
I3
sS'11870'
p4098
I1
sS'11813'
p4099
I1
sS'11876'
p4100
I4
sS'11877'
p4101
I1
sS'11874'
p4102
I1
sS'11875'
p4103
I4
sS'11641'
p4104
I4
sS'11612'
p4105
I5
sS'11643'
p4106
I3
sS'11642'
p4107
I3
sS'11645'
p4108
I4
sS'11644'
p4109
I3
sS'11728'
p4110
I3
sS'11613'
p4111
I2
sS'11962'
p4112
I1
sS'11611'
p4113
I5
sS'11551'
p4114
I4
sS'11550'
p4115
I2
sS'11553'
p4116
I7
sS'11552'
p4117
I5
sS'11555'
p4118
I20
sS'11554'
p4119
I17
sS'11557'
p4120
I451
sS'11556'
p4121
I1
sS'11559'
p4122
I13
sS'11596'
p4123
I2
sS'11799'
p4124
I3
sS'11844'
p4125
I1
sS'11797'
p4126
I1
sS'11794'
p4127
I1
sS'11712'
p4128
I3
sS'11711'
p4129
I3
sS'11710'
p4130
I6
sS'11717'
p4131
I4
sS'1363'
p4132
I4
sS'11849'
p4133
I1
sS'11714'
p4134
I4
sS'11847'
p4135
I2
sS'11846'
p4136
I5
sS'11845'
p4137
I1
sS'11651'
p4138
I3
sS'11843'
p4139
I1
sS'11842'
p4140
I1
sS'11841'
p4141
I1
sS'11655'
p4142
I3
sa(dp4143
S'11964'
p4144
I2
sS'11965'
p4145
I7
sa(dp4146
S'9095'
p4147
I7
sS'8600'
p4148
I6
sS'11988'
p4149
I1
sS'11989'
p4150
I1
sS'6604'
p4151
I6
sS'11982'
p4152
I1
sS'11980'
p4153
I6
sS'11981'
p4154
I1
sS'2344'
p4155
I1
sS'4280'
p4156
I6
sS'1055'
p4157
I8
sS'6769'
p4158
I6
sS'11996'
p4159
I1
sS'11979'
p4160
I6
sS'11978'
p4161
I6
sS'11973'
p4162
I7
sS'11972'
p4163
I6
sS'11971'
p4164
I7
sS'11970'
p4165
I6
sS'11977'
p4166
I6
sS'11976'
p4167
I6
sS'11975'
p4168
I6
sS'11974'
p4169
I6
sS'11999'
p4170
I1
sS'4562'
p4171
I6
sS'11995'
p4172
I1
sS'11994'
p4173
I1
sS'11997'
p4174
I1
sS'5954'
p4175
I6
sS'2332'
p4176
I6
sS'8080'
p4177
I6
sS'5351'
p4178
I6
sS'3396'
p4179
I6
sS'12002'
p4180
I1
sS'12000'
p4181
I1
sS'12001'
p4182
I1
sS'11967'
p4183
I16
sS'7524'
p4184
I6
sS'11968'
p4185
I1
sS'11969'
p4186
I7
sa(dp4187
S'8625'
p4188
I1
sS'12076'
p4189
I2
sS'12072'
p4190
I2
sS'12071'
p4191
I2
sS'12070'
p4192
I2
sS'5373'
p4193
I1
sS'12176'
p4194
I1
sS'12177'
p4195
I1
sS'12174'
p4196
I1
sS'12175'
p4197
I1
sS'12172'
p4198
I1
sS'12173'
p4199
I1
sS'12170'
p4200
I1
sS'12171'
p4201
I1
sS'12091'
p4202
I2
sS'12178'
p4203
I1
sS'12179'
p4204
I1
sS'12068'
p4205
I2
sS'12069'
p4206
I4
sS'12062'
p4207
I1
sS'12064'
p4208
I3
sS'12099'
p4209
I1
sS'3241'
p4210
I2
sS'7086'
p4211
I5
sS'12268'
p4212
I1
sS'12147'
p4213
I1
sS'12149'
p4214
I1
sS'12265'
p4215
I2
sS'12198'
p4216
I3
sS'12158'
p4217
I1
sS'12159'
p4218
I1
sS'12154'
p4219
I1
sS'12155'
p4220
I1
sS'12156'
p4221
I1
sS'12157'
p4222
I1
sS'12150'
p4223
I1
sS'12151'
p4224
I1
sS'12152'
p4225
I1
sS'12153'
p4226
I1
sS'8692'
p4227
I3
sS'12243'
p4228
I1
sS'12129'
p4229
I1
sS'12087'
p4230
I1
sS'12082'
p4231
I1
sS'12080'
p4232
I2
sS'12121'
p4233
I1
sS'12120'
p4234
I1
sS'12122'
p4235
I4
sS'12124'
p4236
I5
sS'12126'
p4237
I2
sS'12270'
p4238
I1
sS'12032'
p4239
I3
sS'12031'
p4240
I4
sS'12030'
p4241
I1
sS'12034'
p4242
I6
sS'12234'
p4243
I1
sS'12230'
p4244
I1
sS'12233'
p4245
I1
sS'12132'
p4246
I2
sS'12130'
p4247
I1
sS'12131'
p4248
I1
sS'11975'
p4249
I1
sS'12024'
p4250
I2
sS'12026'
p4251
I7
sS'12027'
p4252
I1
sS'12022'
p4253
I396
sS'12023'
p4254
I1
sS'12028'
p4255
I5
sS'12029'
p4256
I1
sS'12181'
p4257
I1
sS'12180'
p4258
I1
sS'12107'
p4259
I1
sS'12106'
p4260
I2
sS'12105'
p4261
I2
sS'12104'
p4262
I2
sS'12100'
p4263
I1
sS'12220'
p4264
I2
sS'12229'
p4265
I1
sS'8363'
p4266
I1
sS'2630'
p4267
I1
sS'12051'
p4268
I5
sS'12199'
p4269
I3
sS'12052'
p4270
I5
sS'12055'
p4271
I1
sS'12054'
p4272
I1
sS'12057'
p4273
I3
sS'12192'
p4274
I2
sS'12197'
p4275
I3
sS'12111'
p4276
I2
sS'12112'
p4277
I2
sS'8728'
p4278
I12
sS'12118'
p4279
I2
sS'12119'
p4280
I1
sS'12213'
p4281
I2
sS'12212'
p4282
I1
sS'12210'
p4283
I1
sS'12217'
p4284
I2
sS'12216'
p4285
I2
sS'12215'
p4286
I2
sS'12214'
p4287
I2
sS'12208'
p4288
I1
sS'12219'
p4289
I2
sS'12218'
p4290
I2
sS'146'
p4291
I2
sS'12050'
p4292
I5
sS'4255'
p4293
I2
sS'8312'
p4294
I1
sS'12048'
p4295
I2
sS'12049'
p4296
I2
sS'6540'
p4297
I3
sS'12200'
p4298
I3
sS'12201'
p4299
I2
sS'12165'
p4300
I1
sS'12164'
p4301
I1
sS'12167'
p4302
I1
sS'12166'
p4303
I1
sS'12161'
p4304
I1
sS'12160'
p4305
I1
sS'12163'
p4306
I1
sS'12162'
p4307
I1
sS'12204'
p4308
I4
sS'12206'
p4309
I1
sS'12089'
p4310
I2
sS'12169'
p4311
I1
sS'12168'
p4312
I1
sS'12202'
p4313
I4
sS'12203'
p4314
I3
sa(dp4315
S'12295'
p4316
I1
sS'12294'
p4317
I1
sS'12279'
p4318
I1
sS'12278'
p4319
I1
sS'12280'
p4320
I1
sS'12281'
p4321
I1
sS'12282'
p4322
I1
sS'12275'
p4323
I2
sS'12276'
p4324
I1
sa(dp4325
S'12299'
p4326
I1
sS'12394'
p4327
I1
sS'12395'
p4328
I1
sS'12392'
p4329
I1
sS'12393'
p4330
I1
sS'12390'
p4331
I1
sS'12391'
p4332
I1
sS'12358'
p4333
I1
sS'12359'
p4334
I2
sS'12352'
p4335
I1
sS'12353'
p4336
I2
sS'12350'
p4337
I1
sS'12351'
p4338
I1
sS'12356'
p4339
I1
sS'12357'
p4340
I1
sS'12354'
p4341
I1
sS'12355'
p4342
I1
sS'9006'
p4343
I1
sS'12367'
p4344
I8
sS'12366'
p4345
I2
sS'12365'
p4346
I2
sS'12364'
p4347
I1
sS'12363'
p4348
I1
sS'12362'
p4349
I1
sS'12361'
p4350
I1
sS'12360'
p4351
I1
sS'12387'
p4352
I1
sS'12386'
p4353
I1
sS'12349'
p4354
I1
sS'12348'
p4355
I1
sS'12343'
p4356
I1
sS'12345'
p4357
I1
sS'12344'
p4358
I1
sS'12347'
p4359
I1
sS'12346'
p4360
I1
sa(dp4361
S'8073'
p4362
I2
sS'3271'
p4363
I2
sS'12420'
p4364
I2
sS'12421'
p4365
I2
sS'12422'
p4366
I2
sS'7954'
p4367
I3
sS'12424'
p4368
I2
sS'12425'
p4369
I2
sS'12426'
p4370
I2
sS'12427'
p4371
I2
sS'12428'
p4372
I2
sS'12429'
p4373
I2
sS'6128'
p4374
I3
sS'12408'
p4375
I1
sS'12409'
p4376
I6
sS'12442'
p4377
I2
sS'12443'
p4378
I2
sS'12440'
p4379
I2
sS'12399'
p4380
I1
sS'12402'
p4381
I1
sS'12403'
p4382
I1
sS'12400'
p4383
I1
sS'12401'
p4384
I1
sS'12406'
p4385
I1
sS'12407'
p4386
I3
sS'12404'
p4387
I1
sS'12405'
p4388
I1
sS'1449'
p4389
I2
sS'12441'
p4390
I2
sS'12444'
p4391
I1
sS'12437'
p4392
I2
sS'12436'
p4393
I2
sS'12435'
p4394
I2
sS'12434'
p4395
I1
sS'12433'
p4396
I2
sS'12432'
p4397
I2
sS'12431'
p4398
I1
sS'12430'
p4399
I2
sS'12186'
p4400
I2
sS'12439'
p4401
I2
sS'12438'
p4402
I2
sS'12419'
p4403
I2
sS'12418'
p4404
I3
sS'12411'
p4405
I1
sS'12410'
p4406
I1
sS'12413'
p4407
I1
sS'12412'
p4408
I1
sS'12415'
p4409
I2
sS'12414'
p4410
I3
sS'12417'
p4411
I2
sS'12416'
p4412
I2
sS'12423'
p4413
I2
sa(dp4414
S'12483'
p4415
I1
sS'12851'
p4416
I2
sS'12833'
p4417
I1
sS'12832'
p4418
I1
sS'12831'
p4419
I3
sS'12830'
p4420
I1
sS'12699'
p4421
I4
sS'12834'
p4422
I1
sS'12477'
p4423
I1
sS'6871'
p4424
I1
sS'12872'
p4425
I1
sS'12370'
p4426
I1
sS'12471'
p4427
I2
sS'12828'
p4428
I1
sS'12829'
p4429
I3
sS'12707'
p4430
I2
sS'12708'
p4431
I2
sS'12826'
p4432
I3
sS'12827'
p4433
I2
sS'8025'
p4434
I14
sS'12789'
p4435
I1
sS'12788'
p4436
I1
sS'3681'
p4437
I2
sS'12855'
p4438
I2
sS'12571'
p4439
I3
sS'2771'
p4440
I3
sS'12859'
p4441
I2
sS'12858'
p4442
I2
sS'12589'
p4443
I1
sS'12588'
p4444
I1
sS'3146'
p4445
I1
sS'12583'
p4446
I1
sS'12853'
p4447
I2
sS'12580'
p4448
I2
sS'12587'
p4449
I1
sS'12854'
p4450
I2
sS'12585'
p4451
I1
sS'12584'
p4452
I1
sS'12792'
p4453
I1
sS'12790'
p4454
I1
sS'12791'
p4455
I1
sS'12595'
p4456
I1
sS'12596'
p4457
I6
sS'12597'
p4458
I1
sS'12591'
p4459
I1
sS'12592'
p4460
I12
sS'12593'
p4461
I6
sS'12598'
p4462
I1
sS'12599'
p4463
I2
sS'12846'
p4464
I2
sS'12844'
p4465
I3
sS'12845'
p4466
I4
sS'12456'
p4467
I1
sS'12453'
p4468
I1
sS'12458'
p4469
I1
sS'12512'
p4470
I3
sS'12802'
p4471
I2
sS'12876'
p4472
I1
sS'12875'
p4473
I1
sS'12873'
p4474
I2
sS'2612'
p4475
I3
sS'12871'
p4476
I2
sS'12870'
p4477
I2
sS'12600'
p4478
I6
sS'12734'
p4479
I5
sS'12446'
p4480
I1049
sS'12447'
p4481
I1
sS'12445'
p4482
I1
sS'1034'
p4483
I1
sS'12860'
p4484
I2
sS'12861'
p4485
I2
sS'12862'
p4486
I2
sS'12863'
p4487
I2
sS'12864'
p4488
I2
sS'12865'
p4489
I2
sS'12866'
p4490
I2
sS'12867'
p4491
I2
sS'12868'
p4492
I2
sS'12869'
p4493
I2
sS'12622'
p4494
I1
sS'12623'
p4495
I1
sS'12620'
p4496
I1
sS'12621'
p4497
I1
sS'12624'
p4498
I2
sS'97'
p4499
I3
sS'12473'
p4500
I2
sS'12472'
p4501
I1
sS'12578'
p4502
I2
sS'12579'
p4503
I1
sS'12749'
p4504
I2
sS'12474'
p4505
I10
sS'12573'
p4506
I6
sS'12570'
p4507
I2
sS'12746'
p4508
I1
sS'12577'
p4509
I3
sS'12574'
p4510
I2
sS'12575'
p4511
I1
sS'3375'
p4512
I1
sS'12569'
p4513
I25
sS'12815'
p4514
I4
sS'12814'
p4515
I1
sS'12543'
p4516
I1
sS'12613'
p4517
I1
sS'12852'
p4518
I2
sS'12464'
p4519
I1
sS'12465'
p4520
I2
sS'12462'
p4521
I1
sS'12857'
p4522
I2
sS'12856'
p4523
I1
sS'12806'
p4524
I2
sS'12554'
p4525
I1
sS'12558'
p4526
I2
sS'2331'
p4527
I1
sS'12768'
p4528
I2
sS'12685'
p4529
I4
sS'12687'
p4530
I1
sS'12688'
p4531
I5
sS'2230'
p4532
I1
sS'8855'
p4533
I43
sa(dp4534
S'12569'
p4535
I2
sS'8040'
p4536
I1
sS'3349'
p4537
I2
sS'2343'
p4538
I1
sS'12888'
p4539
I1
sS'12889'
p4540
I1
sS'12886'
p4541
I1
sS'12887'
p4542
I1
sS'12884'
p4543
I1
sS'12885'
p4544
I1
sS'12890'
p4545
I1
sS'12883'
p4546
I1
sS'12893'
p4547
I1
sS'12878'
p4548
I195
sS'6723'
p4549
I2
sS'8923'
p4550
I1
sS'12891'
p4551
I1
sS'8'
p4552
I1
sS'12892'
p4553
I1
sS'12947'
p4554
I1
sS'6403'
p4555
I1
sa.