(dp0
S'a..martin@enron.com'
p1
(dp2
S'poi'
p3
I00
sS'corpus_score'
p4
cnumpy.core.multiarray
scalar
p5
(cnumpy
dtype
p6
(S'f8'
p7
I0
I1
tp8
Rp9
(I3
S'<'
p10
NNNI-1
I-1
I0
tp11
bS'\x83\xdc9D\x15\xdc\xad@'
p12
tp13
Rp14
ssS'ken.rice@enron.com'
p15
(dp16
g3
I01
sg4
g5
(g9
S'\xcds\xe1\xea\x96\xfd\xd2@'
p17
tp18
Rp19
ssS'david.haug@enron.com'
p20
(dp21
g3
I00
sg4
g5
(g9
S'\xb8\xe1\x82\xdcX\xfd\xce@'
p22
tp23
Rp24
ssS'mark.koenig@enron.com'
p25
(dp26
g3
I01
sg4
g5
(g9
S'\xea\x1eK\x10=\x9c\xf3@'
p27
tp28
Rp29
ssS'ben.glisan@enron.com'
p30
(dp31
g3
I01
sg4
g5
(g9
S'S\x8d\xf5+{\xd4\xca@'
p32
tp33
Rp34
ssS'julia.murray@enron.com'
p35
(dp36
g3
I00
sg4
g5
(g9
S'\x92Zq|]w\x9e@'
p37
tp38
Rp39
ssS'jim.piro@enron.com'
p40
(dp41
g3
I00
sg4
g5
(g9
S'\x8e&\xd0\x93/y\x9f@'
p42
tp43
Rp44
ssS'jeff.donahue@enron.com'
p45
(dp46
g3
I00
sg4
g5
(g9
S')v\xe9w#>\xe4@'
p47
tp48
Rp49
ssS'rick.bergsieker@enron.com'
p50
(dp51
g3
I00
sg4
g5
(g9
S'\xceT\x07U\xa0\x17\x97@'
p52
tp53
Rp54
ssS'mark.pickering@enron.com'
p55
(dp56
g3
I00
sg4
g5
(g9
S'\x88\xb6\xe4m\x82~\xc0@'
p57
tp58
Rp59
ssS'richard.shapiro@enron.com'
p60
(dp61
g3
I00
sg4
g5
(g9
S'1U\xb5\x9da\xc5\x00A'
p62
tp63
Rp64
ssS'jeffrey.shankman@enron.com'
p65
(dp66
g3
I00
sg4
g5
(g9
S'\rnz\x8b\xc9v\xf1@'
p67
tp68
Rp69
ssS'vicki.sharp@enron.com'
p70
(dp71
g3
I00
sg4
g5
(g9
S'\x9d\xc9L;b\xf2\xb8@'
p72
tp73
Rp74
ssS'michael.brown@enron.com'
p75
(dp76
g3
I00
sg4
g5
(g9
S'D\xd7\x83\xd71x\xb4@'
p77
tp78
Rp79
ssS'vince.kaminski@enron.com'
p80
(dp81
g3
I00
sg4
g5
(g9
S'T\xe1\x001\xc8\x16\xf2@'
p82
tp83
Rp84
ssS'robert.hayes@enron.com'
p85
(dp86
g3
I00
sg4
g5
(g9
S'\xd6KW\x92`dV@'
p87
tp88
Rp89
ssS'david.delainey@enron.com'
p90
(dp91
g3
I01
sg4
g5
(g9
S'\x95\xca\x9ds\xf5\x7f\x10A'
p92
tp93
Rp94
ssS'rebecca.mcdonald@enron.com'
p95
(dp96
g3
I00
sg4
g5
(g9
S'N\xc93\x1971\xb2@'
p97
tp98
Rp99
ssS'james.derrick@enron.com'
p100
(dp101
g3
I00
sg4
g5
(g9
S'\\\xedf\xfc\xd2E\xec@'
p102
tp103
Rp104
ssS'james.hughes@enron.com'
p105
(dp106
g3
I00
sg4
g5
(g9
S'S2\x82\x9dO\xa3\xb8@'
p107
tp108
Rp109
ssS'jeff.skilling@enron.com'
p110
(dp111
g3
I01
sg4
g5
(g9
S'\x08g~\r\xc9+\xe4@'
p112
tp113
Rp114
ssS'rod.hayslett@enron.com'
p115
(dp116
g3
I00
sg4
g5
(g9
S'\x0b`\xa4\xd3\xcc\xea\xe0@'
p117
tp118
Rp119
ssS'adam.umanoff@enron.com'
p120
(dp121
g3
I00
sg4
g5
(g9
S'}\xf6\xc5\x86\xf6\xe8\x90@'
p122
tp123
Rp124
ssS'rex.shelby@enron.com'
p125
(dp126
g3
I01
sg4
g5
(g9
S'\xf3>h/-E\xde@'
p127
tp128
Rp129
ssS'rick.buy@enron.com'
p130
(dp131
g3
I00
sg4
g5
(g9
S'\x82\xd4is5\xee\xea@'
p132
tp133
Rp134
ssS'louise.kitchen@enron.com'
p135
(dp136
g3
I00
sg4
g5
(g9
S'\xeb4j8Ql\x14A'
p137
tp138
Rp139
ssS'greg.piper@enron.com'
p140
(dp141
g3
I00
sg4
g5
(g9
S'\xaa\r\x86;\xfe\x91\xf3@'
p142
tp143
Rp144
ssS'janet.dietrich@enron.com'
p145
(dp146
g3
I00
sg4
g5
(g9
S'\xe5\xfaL\xe2\xdc\t\xc7@'
p147
tp148
Rp149
ssS'mark.haedicke@enron.com'
p150
(dp151
g3
I00
sg4
g5
(g9
S'\x9b9\x85\xb0Q\xa9\xe9@'
p152
tp153
Rp154
ssS'jim.fallon@enron.com'
p155
(dp156
g3
I00
sg4
g5
(g9
S'1\xdd\xad\xd8\xb8}\xe6@'
p157
tp158
Rp159
ssS'philippe.bibi@enron.com'
p160
(dp161
g3
I00
sg4
g5
(g9
S"\xe5 \xe0'wK\xc1@"
p162
tp163
Rp164
ssS'kevin.hannon@enron.com'
p165
(dp166
g3
I01
sg4
g5
(g9
S'^$2j\xca\x93\xf3@'
p167
tp168
Rp169
ssS'john.buchanan@enron.com'
p170
(dp171
g3
I00
sg4
g5
(g9
S'e\xba\x1a\x92\xe2\xf6\x87@'
p172
tp173
Rp174
ssS'joseph.deffner@enron.com'
p175
(dp176
g3
I00
sg4
g5
(g9
S'T\xc3k\x96t\x0b\xc7@'
p177
tp178
Rp179
ssS'jeffrey.sherrick@enron.com'
p180
(dp181
g3
I00
sg4
g5
(g9
S'`\xf7%h\xa0\xa3\xe9@'
p182
tp183
Rp184
ssS'gene.humphrey@enron.com'
p185
(dp186
g3
I00
sg4
g5
(g9
S'L\xa0\xe6X\xeb~\xe4@'
p187
tp188
Rp189
ssS'kenneth.lay@enron.com'
p190
(dp191
g3
I01
sg4
g5
(g9
S'\x9e@0\x0f\xed\x07\tA'
p192
tp193
Rp194
ssS'christopher.calger@enron.com'
p195
(dp196
g3
I01
sg4
g5
(g9
S'\x8a\xec]\xd0\x96\x1c\xd9@'
p197
tp198
Rp199
ssS'richard.lewis@enron.com'
p200
(dp201
g3
I00
sg4
g5
(g9
S'#\xcc\xff\xf4\xc1~\x8e@'
p202
tp203
Rp204
ssS'rob.walls@enron.com'
p205
(dp206
g3
I00
sg4
g5
(g9
S'\xc8c\xd0?\xd4\xa0\xb8@'
p207
tp208
Rp209
ssS'mitchell.taylor@enron.com'
p210
(dp211
g3
I00
sg4
g5
(g9
S'x\xbd\x1ew\xa1\xe4`@'
p212
tp213
Rp214
ssS'jeffrey.mcmahon@enron.com'
p215
(dp216
g3
I00
sg4
g5
(g9
S'\x10\xcc\x92b\x9fb\xd2@'
p217
tp218
Rp219
ssS'jay.fitzgerald@enron.com'
p220
(dp221
g3
I00
sg4
g5
(g9
S';I\xebx\x0f6\xd1@'
p222
tp223
Rp224
ssS'steven.kean@enron.com'
p225
(dp226
g3
I00
sg4
g5
(g9
S'7O\x92\xabP"\x16A'
p227
tp228
Rp229
ssS'gary.hickerson@enron.com'
p230
(dp231
g3
I00
sg4
g5
(g9
S'\xee\x85\xf8\xcd/b\xb6@'
p232
tp233
Rp234
ssS'michael.moran@enron.com'
p235
(dp236
g3
I00
sg4
g5
(g9
S'l\nz\xdc\xfa\xabn@'
p237
tp238
Rp239
ssS'cindy.olson@enron.com'
p240
(dp241
g3
I00
sg4
g5
(g9
S'\x0bf#LeV\xf1@'
p242
tp243
Rp244
ssS'stanley.horton@enron.com'
p245
(dp246
g3
I00
sg4
g5
(g9
S'\xca\xc7I(\x14\xcf\xe6@'
p247
tp248
Rp249
ssS'john.sherriff@enron.com'
p250
(dp251
g3
I00
sg4
g5
(g9
S'\xd0\xee\xd0\x0fP\x98\xf8@'
p252
tp253
Rp254
ssS'marty.sunde@enron.com'
p255
(dp256
g3
I00
sg4
g5
(g9
S'\xd0\xef\xfcV~Y\xdb@'
p257
tp258
Rp259
ssS'tracy.foy@enron.com'
p260
(dp261
g3
I00
sg4
g5
(g9
S'7\x1e\xf7\xb2G\xbbq@'
p262
tp263
Rp264
ssS's..muller@enron.com'
p265
(dp266
g3
I00
sg4
g5
(g9
S'\xe1(Ve\xd5\xf3\xa1@'
p267
tp268
Rp269
ssS'wes.colwell@enron.com'
p270
(dp271
g3
I01
sg4
g5
(g9
S'\x0b\x14;\x9bH2\xb4@'
p272
tp273
Rp274
ssS'sanjay.bhatnagar@enron.com'
p275
(dp276
g3
I00
sg4
g5
(g9
S'\xe3g\xd3\x8arAe@'
p277
tp278
Rp279
ssS'mark.frevert@enron.com'
p280
(dp281
g3
I00
sg4
g5
(g9
S'\xa3\x9cz\xabq\xbe\xd0@'
p282
tp283
Rp284
ssS'phillip.allen@enron.com'
p285
(dp286
g3
I00
sg4
g5
(g9
S'\xb9<\xa3\rH\xf5\xd2@'
p287
tp288
Rp289
ssS'james.bannantine@enron.com'
p290
(dp291
g3
I00
sg4
g5
(g9
S'\x84\xd4J\x1d1\xd5s@'
p292
tp293
Rp294
ssS'dana.gibbs@enron.com'
p295
(dp296
g3
I00
sg4
g5
(g9
S'b\x02\x9e#\xd16{@'
p297
tp298
Rp299
ssS'rockford.meyer@enron.com'
p300
(dp301
g3
I00
sg4
g5
(g9
S'\xa0gp]\xcc\xf1\x8c@'
p302
tp303
Rp304
ssS'elizabeth.tilney@enron.com'
p305
(dp306
g3
I00
sg4
g5
(g9
S'\xc5qA\xec\xa7?\xd9@'
p307
tp308
Rp309
ssS'keith.dodson@enron.com'
p310
(dp311
g3
I00
sg4
g5
(g9
S'\x12\x10\xda\xd3*\xca\x90@'
p312
tp313
Rp314
ssS'kevin.garland@enron.com'
p315
(dp316
g3
I00
sg4
g5
(g9
S'*\xc1\x9b)\xb7O\xe4@'
p317
tp318
Rp319
ssS'charlene.jackson@enron.com'
p320
(dp321
g3
I00
sg4
g5
(g9
S'Lf4\x0fMv\xd7@'
p322
tp323
Rp324
ssS'chip.cox@enron.com'
p325
(dp326
g3
I00
sg4
g5
(g9
S'WxM#\x1e\xd5\xa2@'
p327
tp328
Rp329
ssS'raymond.bowen@enron.com'
p330
(dp331
g3
I01
sg4
g5
(g9
S'\x02\x94\xd4\xb1\xe7g\xca@'
p332
tp333
Rp334
ssS'w.duran@enron.com'
p335
(dp336
g3
I00
sg4
g5
(g9
S'\xfa\xc0\x17~:\xc5\x95@'
p337
tp338
Rp339
ssS'george.wasaff@enron.com'
p340
(dp341
g3
I00
sg4
g5
(g9
S':\xd3Cs\x9f\xc2\xcd@'
p342
tp343
Rp344
ssS'larry.izzo@enron.com'
p345
(dp346
g3
I00
sg4
g5
(g9
S';\x0eoz\xe2\x93\xca@'
p347
tp348
Rp349
ssS'dan.leff@enron.com'
p350
(dp351
g3
I00
sg4
g5
(g9
S'\xbb\xcc\x11f\x89"\xe2@'
p352
tp353
Rp354
ssS'ken.powers@enron.com'
p355
(dp356
g3
I00
sg4
g5
(g9
S'\xf3\n\xf0\xd9\xe4(\x83@'
p357
tp358
Rp359
ssS'george.mcclellan@enron.com'
p360
(dp361
g3
I00
sg4
g5
(g9
S'nl\xd8\xdf\xbc \xa2@'
p362
tp363
Rp364
ssS'sally.beck@enron.com'
p365
(dp366
g3
I00
sg4
g5
(g9
S'Kt\xaaV\x1fq\rA'
p367
tp368
Rp369
ssS'bill.cordes@enron.com'
p370
(dp371
g3
I00
sg4
g5
(g9
S'\xa9/U=%\xbfx@'
p372
tp373
Rp374
ssS'paula.rieker@enron.com'
p375
(dp376
g3
I01
sg4
g5
(g9
S'c\x88,q\xba\xb6\rA'
p377
tp378
Rp379
ssS'terence.thorn@enron.com'
p380
(dp381
g3
I00
sg4
g5
(g9
S'II\x81\xde\x88\xcfh@'
p382
tp383
Rp384
ssS'jeremy.blachman@enron.com'
p385
(dp386
g3
I00
sg4
g5
(g9
S'T|\xf0\xf8\xd8\x04\xc2@'
p387
tp388
Rp389
ssS'kulvinder.fowler@enron.com'
p390
(dp391
g3
I00
sg4
g5
(g9
S'\x0f\xa4\x06\xe3+\xec\x99@'
p392
tp393
Rp394
ssS'brian.redmond@enron.com'
p395
(dp396
g3
I00
sg4
g5
(g9
S'\x9f\x92\x1e\xeb\x91\x1f\xf5@'
p397
tp398
Rp399
ssS'john.lavorato@enron.com'
p400
(dp401
g3
I00
sg4
g5
(g9
S'\x00\xdf!\xfb\x01/\x13A'
p402
tp403
Rp404
ssS'richard.causey@enron.com'
p405
(dp406
g3
I01
sg4
g5
(g9
S'|\x83\xc9\xaa\x82N\xcd@'
p407
tp408
Rp409
ssS'rebecca.carter@enron.com'
p410
(dp411
g3
I00
sg4
g5
(g9
S'8;2\x97\xff\xac\xe5@'
p412
tp413
Rp414
ssS'mark.metts@enron.com'
p415
(dp416
g3
I00
sg4
g5
(g9
S']y\x98\xee=T\xb9@'
p417
tp418
Rp419
ssS'tim.belden@enron.com'
p420
(dp421
g3
I01
sg4
g5
(g9
S'~}q\xf8?l\xf4@'
p422
tp423
Rp424
ssS'mike.mcconnell@enron.com'
p425
(dp426
g3
I00
sg4
g5
(g9
S'\x8c\xa4\xa5\xe3\x96\x85\x03A'
p427
tp428
Rp429
ssS'greg.whalley@enron.com'
p430
(dp431
g3
I00
sg4
g5
(g9
S'\x14\xb7K\xf0\xed}\xdd@'
p432
tp433
Rp434
ssS'danny.mccarty@enron.com'
p435
(dp436
g3
I00
sg4
g5
(g9
S'\xff|\x93HP\xf9\xce@'
p437
tp438
Rp439
ss.