(lp0
S'20010226 20010530 20010226 20000607 20010525 20010820 20010226 20000622 20001110'
p1
aS'20010817 20010604 20010607 20010206 20001211 20001129 20010604 20001112 20010611 20010604 20010420 20010420 20010423 20010817 20010604'
p2
aS'20000822 20000321 20000314 20010129 20010108 20000630'
p3
aS'20011227 20011107 20020124 20020102 20020102 20011231 20011221 20011219 20011217 20011211 20011231 20020102 20011127 20011123 20011117 20011231'
p4
aS'20011022 20011022 20011024 20011022 20010702 20010404 20010320 20010913 20010529 20010504'
p5
aS'20010801 20010801 20010503 20000127 20000201 20000127 20001103 20010503 20010404 20010315 20010315 20010306 20010302 20010131 20010112 20010503 20010503 20010503 20010516 20010515 20010827 20010807 20010802 20010801 20010514 20010801 20010801 20010514 20010514 20010514 20010514 20010514 20010514 20010424 20010514 20010511 20010516 20010510 20010509 20010509 20010509 20010509 20010504 20010504 20010504 20010503 20010516 20010501 20010430 20010430 20010426 20010425 20010424 20010423 20010423 20010423 20010516 20010423 20010423 20010420 20010420 20010420 20010420 20010420 20010419 20010419 20010419 20010515 20010418 20010417 20010515 20010515 20010503'
p6
aS'20011017 20011018 20011105 20010514 20010530 20010604 20010606 20010611 20010330 20010627 20010803 20010914 20010404 20010913 20010403 20010504'
p7
aS'20010531 20010531 20011031 20001213 20001003 20001213 20000305 20010627 20010814 20001221 20010108 20010116 20010123 20010417 20010419 20010323 20010531 20010529 20010529 20010523 20010522 20010522 20010522 20010604 20010605 20010221 20010220'
p8
aS'20010620 20010620 20010612 20010508 20010508 20010419 20010419 20010417 20010408 20010424'
p9
aS'20010922 20010922 20011221 20010922 20010922 20011017 20011025 20000111 20010625 20010522 20011025 20011228'
p10
aS'20010312 20001130 20001130 20010611 20001130'
p11
aS'20010427 20001130 20001129 20000329 20001120 20001204 20011025 20011024 20011024 20011024 20011024 20011022 20010914 20010717 20001206 20001205'
p12
aS'20011111 20011111 20011112 20011115 20020117 20011121 20011121 20011126 20011126 20000111 20011031 20010913 20011205 20011128 20011112 20010330 20011116 20011121 20011210 20010913 20011112 20011126 20001130'
p13
aS'20001129 20010625 20010601 20001213 20010425 20010507 20011231 20011125 20011005 20011205 20011126 20011123 20011125 20011125 20010515 20010221 20010309 20010515 20011026 20011026 20011026 20011026 20011025 20011126 20011031 20011115 20011115 20011115 20011115 20011125 20011106 20010524 20011025 20011101 20011101'
p14
aS'20000504 20001128 20020123 20020123 20011117 20011115 20011114 20011119 20011121 20011121 20011121 20011121 20011126 20011127 20011126 20011024 20011018 20011015 20011009 20011009 20011113 20011115 20011119 20011119 20011119 20011119 20011120 20011120 20011127 20010905 20011003 20011120 20011120 20011120 20011120 20011120 20011120 20011220 20011107 20011205 20011017 20011016 20011016 20011009 20011001 20011001 20010904 20010904 20010709 20010704 20010703 20011004 20011019 20011022 20011022 20011003 20011015 20011113 20011113 20011127 20011019'
p15
aS'20010207 19990707 20000209 20010423 20000209 20010406 20010423 20010424 20000121 20000523 20010404 20010411 20010508 20010419 20000713 20010529 20010523 20010523'
p16
aS'20010318 20010318 20010318 20010318 20010323 20010325 20010402 20010419 20010430 20010506 20010506 20010510 20010511 20010524 20000915 20000915 20000920 20000926 20000927 20001004 20001016 20010618 20010705 20010708 20010709 20001031 20010710 20010717 20010719 20001107 20001107 20001109 20001112 20001115 20001117 20001117 20001127 20001128 20001212 19991006 20001226 20001227 20001227 20001228 20001229 20010101 20010102 20010102 20010102 20010102 20010102 20010103 20010108 20010121 20010121 20010121 20010121 20010121 20010131 20010201 20010213 20010302 20010312 20010312 20010312 20000901 20000901 20000901 20010719 20010525 20010102 19970303 19970321 19970925 19970926 19970929 20000814 20000814 20000814 20000814 20000814 20000814 19970929 20000814 19970929 20000815 19970930 20000815 20000816 20000816 20000816 19971001 19971002 20000817 19971003 20000817 19971015 20000818 20000818 19970331 19971022 20000821 20000821 20000821 20000821 20000821 19971024 20000821 20000821 20000821 20000821 19971030 20000821 20000821 20000821 19971103 19971104 20000822 20000822 20000822 20000822 20001016 20000822 19971105 20000823 20000823 19971107 20000823 20000823 19971117 20000824 20000824 20000824 20000824 20000824 19971117 20000824 20000825 20000824 20000824 20000824 20000824 20000824 19971120 20000825 20000825 20000825 20000825 19970407 19971120 20000828 20000828 20000828 20000828 20000828 20000828 20000828 19791231 20000828 20000828 20000828 20000828 19990310 20000829 19791231 20000831 19990310 20000831 20000831 20000831 20000831 19990310 20000831 20000831 20000831 20000831 20000901 20000901 20000901 20000901 20000901 20000901 19791231 20000901 20000901 20000901 20000901 19990829 20000901 20000901 19990830 20000901 20000902 19990903 19990906 20000908 19970410 20000910 19791231 19990908 20000913 20000913 20000913 20000913 20000913 20000913 20000913 19990908 20000913 20000913 20000913 20000913 19990908 20000914 20000914 20000915 20000915 20000915 20000915 19990910 19990910 20000920 20000920 20000920 20000920 20000920 20000920 20000920 20000920 19990910 20000920 20000920 20000921 19990910 20000921 20000921 20000921 20000922 20000922 19990921 20000922 20000922 19970410 20000924 20000924 20000924 20000924 20000924 20000924 20000925 19990923 20000926 20000926 20000926 20000926 20000926 20000926 20000926 20000926 20000926 20000926 20000926 20000926 20000927 20000927 20000927 20000927 20000927 20000927 20000927 20000927 20000927 20000927 20000927 20000927 20000927 20000927 20000927 20000928 20000928 20000928 20000929 20000929 20001002 20001002 20001002 20001004 20001004 20001004 20001004 20001004 20001004 20001004 19970411 20001006 20001008 20001009 20001009 20001009 20001009 20001009 20001009 20001009 20001010 20001010 20001011 20001011 20001011 20001011 20001011 20001011 20001011 20001013 20001013 20001013 20001016 20001016 20001016 20001016 20001016 20001016 20001016 20001016 19991015 20001016 20001016 20001016 20001016 20001016 20001016 20001016 20001016 20001016 20001016 20001016 20001016 20001016 20001016 20001016 20001016 20001016 20001016 20001016 20001016 20001016 20001016 20001017 20001017 20001017 20001018 20001018 20001018 20001019 20001019 20001019 20001020 20001020 20001020 20001020 20001022 20001023 20001023 20001025 20001025 19970415 20001026 20001027 20001103 20001029 20001029 20001029 19970730 19991206 19791231 20000731 20000814 20000822 20000915 20001004 20001016 20001101 20001030 20001030 20001030 20001030 20001030 20001031 20001031 20001031 20001031 20001101 20001101 20001101 20001101 20001101 20001101 20001101 20001102 20001102 20001102 20001102 19970417 20001102 20001102 20001103 20001103 20001103 20001105 20001105 20001106 20001107 20001107 20001107 20001107 20001107 20001107 20001107 20001107 20001107 20001107 20001108 20001108 20001108 20001108 19991206 20001109 19991209 20001109 20001109 20001109 20001109 20001109 20001109 20001110 20001110 20001110 19970418 19791231 20001110 20001110 20001112 20001112 20001112 20001112 20001112 20001112 20001112 20001113 20001113 20001113 19991209 20001114 20001115 20001115 20001115 20001115 20001115 20001115 20001115 20001116 20001116 20001116 20001116 20001116 20001116 20001117 20001117 20001117 20001117 20001118 20001119 19991213 19970305 19970425 20001121 20001121 20001121 20001121 20001121 20001126 20001126 20001126 20001126 20001126 20001128 20001128 20001128 20001128 20001128 20001128 20001128 20001128 20001128 20001128 20001129 20001129 20001129 20001130 20001130 20001130 20001201 20001203 20001203 20001204 20001204 20001204 20001204 20001204 20001204 20001204 20001204 20001204 19991215 20001204 20001204 20001204 20001204 20001204 20001204 20001205 20001205 20001205 20001205 19791231 19991215 20001206 20001208 20001208 20001208 20001208 20001208 19991217 20001210 20001211 20001211 19991217 20001211 20001211 20001211 20001211 20001211 19970429 19991217 20001212 20001212 20001212 20001212 19970501 19991229 20000103 19970513 20000103 20000105 20000105 20000106 19970514 19970515 19970516 19970522 19970306 19970528 19970529 19970604 19970609 20000220 20000220 20000220 20000220 20000220 20000220 20000220 20000220 20000220 20000220 19970610 20000221 20000221 19970612 19970612 19970616 20000301 19970616 20000310 19970617 19791231 19970306 19970618 20000315 19791231 19791231 19970620 19970623 19970625 19970625 19970626 20010607 20010607 20000411 20010607 20010607 20010607 20010607 20010607 20010607 19970627 20000412 20010525 20010524 20010524 20010524 20010524 20010524 20010524 20010524 20010524 20010524 20010524 20010524 20000414 20010524 20010524 20010524 20010524 20010524 20010524 20010524 20010524 20010524 20010524 20010524 20010524 20010523 20010522 19970630 20010522 20010522 20010522 20010522 20010522 20000414 20010517 20010517 20010517 20010517 20010517 20010517 20010517 20010517 20010516 20010515 20010515 20010515 20010515 20010515 20010515 20010515 20010515 19970701 20010513 20010513 20010513 20010513 20010513 20010513 20010513 20010513 20010513 20010513 20010513 20010512 20010511 20010511 20010511 20010511 20010511 20010510 20010510 20010510 20010510 20010510 20010510 20010510 20010510 20010510 20010510 20010507 20010507 19970307 19970701 20010507 20010507 20010507 20010507 20010507 20010506 20010506 20010506 20010504 20010504 20010504 20010504 20010504 20010504 20010504 20010504 20010504 20010504 20010504 20010504 20010502 20010502 20010502 20010502 20010502 20010502 20000418 20000418 20010501 20010430 20010430 20010430 20010430 20010430 20010430 20010429 20010428 20010428 20010428 20010426 20010426 20010426 20010426 20010426 19970702 20010426 20010426 20010425 20010425 20010425 20010425 20010424 20010424 20000419 20010424 20010423 20010421 20010420 20010420 20010420 20010420 20010420 20010420 20010420 20010419 20010419 20010419 20000420 20010417 20010417 20010417 20010417 20010417 20000420 20010416 20010416 20010415 20000420 20010415 20010415 20010415 20010415 20010415 20010415 20010414 20000420 20010412 20010411 20010410 20010410 20010410 20010410 20010410 20010410 20010410 20010410 20010410 20010410 20010410 20010410 20010410 20010410 20010409 20000420 20000420 19970715 20000420 20010403 20010403 20010403 20010403 20010403 20010403 20010402 20010402 20010402 20010402 20010402 20010402 20010402 20010402 20010330 20010330 20010330 19791231 20010329 20010329 20010328 20010328 19970716 20010327 20010327 20010327 20010326 20010325 20010325 20010325 20010325 20010325 20010325 20010325 20010325 20010323 20010320 20010320 20010318 20010318 20010318 20010318 19970717 20010318 20010318 20010318 20010318 20010318 20010318 20010318 20010318 20010318 20010318 20010318 20010316 20010315 20010315 20010315 20010315 20010315 20010314 20010314 20010314 20010314 20010314 20010314 20010314 20010314 20010314 20010313 20010313 20010313 20010313 20010313 20010313 20010313 20010313 20010313 20010312 20010312 20010312 20010312 20010309 20010309 20010309 20010309 20010309 20010309 20010309 20010309 20010309 20010307 20010307 20010307 20010307 20010307 20010307 20010305 20010305 20010304 20010304 20010304 20010302 20010302 20010302 20010302 20010302 20010302 20010302 20010302 20010302 20010302 20010302 20010302 20010302 20010302 20010302 20010302 20010302 19970722 20010228 20010228 20010228 20010228 20010228 20010228 20010228 20010228 20010228 20010228 20010228 20010228 20010228 20010228 20010228 20010228 20010228 20010228 20010228 20010228 20010228 20010228 20010228 20010228 20010228 20010228 20010228 20010228 20010228 20010228 20010228 20010228 20010228 20010228 20010228 20010228 20010228 20010228 20010228 20010228 20010227 20010225 20010225 20010225 20010222 20010222 20010222 20010222 19970724 20010220 20010220 20010220 20010220 20010220 20010220 20010220 20010220 20010220 20010220 20010220 20010220 20010215 20010215 20010214 20010214 20010214 20010214 19970725 20010213 20010213 20010213 20010213 20010213 20010213 20010213 20010211 20010211 20010211 20010211 20010208 20010208 20010207 20010207 20010207 20010207 20010206 20010206 19970311 19970725 20010206 20010206 20010206 20010206 20010206 20010206 20010206 20010206 20010206 20010202 20010202 20010202 20010202 20010202 20010202 20010202 20010202 20010201 20010201 20010201 20010201 20010201 20010201 20010131 20010131 20010131 20010131 20010131 20010131 20010131 19970728 20010130 20010128 20010128 20010128 20010128 20010128 20010128 20010128 20010128 20010128 20010128 20010128 20010128 20010124 20010124 19970729 20010121 20010121 20010121 20010121 20010121 20010121 20010121 20010121 20010121 20010121 20010121 20010121 20010121 20010121 20010121 20010121 20010121 20010118 20010118 20010118 20010118 20010118 20010118 20010118 20010118 20010118 20010118 20010116 20010114 20010114 20010114 20010113 20010113 20010113 20010113 19970731 20010108 20010108 20010108 20010107 20010107 20010107 20010107 20010105 20010105 20010104 20010104 19970801 20010103 20010103 20010103 20010103 20010103 20010103 20010103 20010103 20010102 20010102 20010102 20010102 20010102 20010102 20010102 20010102 20010102 20010102 20010102 20010101 20010101 20001229 20001229 20001228 20001228 20001227 20001227 20001227 20001227 20001227 20001227 20001226 20001220 20001219 20001219 20001219 20001219 19970804 20001219 20001219 20001219 20001219 20001219 20001219 20001219 20001217 20001217 20001217 20001217 20001217 19970805 19970805 19970806 19970316 19970807 19970808 19970814 20000717 20000717 20000717 20000717 20000717 20000717 20000717 19970818 20000718 20000718 20000718 20000718 20000718 19970820 20000719 20000719 20000719 20000719 19970821 20000719 20000719 20000719 20000719 20000719 20000719 19970822 20000721 20000721 19970822 20000721 20000721 20000721 20000721 19970822 19970825 20000724 20000724 20000724 20000724 20000724 20000724 20000724 19970826 20000725 20000725 20000725 20000725 20000725 20000725 20000725 19970827 20000726 20000727 20000727 19970828 19970829 20001220 20000731 20000731 19791231 20000801 20000801 20000801 20000801 20000801 20000801 20000801 20000801 19970908 20000801 20000801 20010719 20010719 20010719 20000801 20010719 20010719 20010719 20010719 20010719 20000801 20010719 20010719 20010718 20010718 20010718 20010717 20010717 20010717 20010715 20010714 20010714 20010714 20010714 20010714 20010714 20010714 20010713 20010713 20010712 20010711 20010711 20010711 19970908 20000801 20010710 20010709 20010709 20010709 20010709 20010709 20010709 20010709 20010708 20010708 20010708 20000802 20010708 20010708 20000802 20010706 20010706 20010706 20010706 20010706 20010706 20010706 20010706 20010706 20010706 20000802 20010705 20010705 20010705 20010705 20010705 20010705 20010705 20010704 20010704 20010701 20010701 20010630 20010630 20010629 19970909 20000802 20010626 20000802 20000802 20010620 20000802 20010618 20010618 20010618 20010618 20010615 20000802 20010615 20010615 20010615 20010615 20010614 20010614 20000802 20010614 20010613 20010613 20010613 20010613 20010613 20010613 20010613 20010613 20010613 20010613 20010613 20010612 20010612 20010612 20010611 19970319 19970910 20010611 20000803 19970912 20000803 20000803 20000803 20000803 20000803 19970916 20000803 20000803 20000803 20000803 20000803 20000803 19970917 20000806 19970918 20000806 20000807 20000807 20000807 19970919 20000807 20000808 20000808 20000808 20000808 20000808 20000808 20000808 19970922 20000809 20000809 19970923 20000810 19970924 19970921 19791231 19970818 20001228 20000927 20010626 20000915 20001228 20010626 20001212 20001228 20010510 19791231 20010711 20001228 20000915 20001228 20010510 20010626 19791231 20010626 20000915 20000927 20010719 20010719 20010719 20010719 20010719 20010719 20010719 20010719 20010719 20010718 20010718 20010718 20010717 20010717 20010717 20010717 20010715 20010714 20010714 20010714 20010714 20010714 20010714 20010714 20010713 20010713 20010712 20010711 20010711 20010711 20010711 20010711 20010710 20010709 20010709 20010709 20010709 20010709 20010709 20010708 20010708 20010708 20010708 20010708 20010706 20010706 20010706 20010706 20010706 20010706 20010706 20010706 20010701 20010701 20010630 20010630 20010629 20010627 20010626 20010621 20010620 20010718 20010717 20010719 20010719 20010409 20010718 19991018 20001116 20001119 20001204 20010711 20010215 20010711 20010409 20010424 20010511 20010525 20010718 20010613 20010613 20010613 20010612 20010417 20010420 20010613 20010718 20001128'
p17
aS'20010411 20001213 20010412 20001219 19990511 19990609 19991108 20010305 20010305 20010305 20010305 20010308 20010308 20010308 20010308 20010308 19991108 20010308 20010309 20010309 20010319 19991108 20010319 20010319 20010319 20010319 20010319 20010319 20010319 20010319 20010319 19991108 20010320 20010320 20010320 20010321 20010321 20010321 20010321 19991115 20010322 20010322 20010326 20010327 20010327 20010327 19991123 20010327 20010327 20010327 20010328 20010328 20010329 20010329 20010329 20010329 20010329 19991123 20010329 20010329 20010329 20010329 20010329 20010329 20010330 20010330 20010330 19991123 20010330 20010330 20010402 20010402 20010402 20010403 20010403 20010403 20010403 20010403 20010403 20010410 20010410 20010410 20010410 20010410 20010410 20010410 20010411 19991124 20010411 20010411 20010411 20010411 20010411 20010412 20010412 20010412 19990609 20010412 20010412 20010412 20010416 20010416 20010416 20010416 20010416 20010416 19991124 20010417 20010418 20010418 20010420 19991129 20010420 20010420 20010420 20010423 19991129 20010424 20010424 20010424 20010424 20010426 20010425 19991129 20010425 20010425 20010426 20010426 20010427 20010427 20010427 19991129 20010427 20010427 20010427 20010501 20010501 20010501 20010501 20010501 19991129 20010507 20010509 20010510 20010510 20010510 20010510 20010511 20010511 19991129 20010511 20010511 19991129 20010514 20010514 20010514 19991129 19990625 19991201 19991201 19991201 19991201 19991202 19991202 20010522 19991202 20010523 19991202 20010524 20010524 19991202 20010529 20010529 20010529 19991202 20010529 20010529 19990625 19991202 19991203 20010531 20010531 20010531 20010531 19991207 20010601 20010601 20010601 19991207 19991207 20010606 20010606 20010606 20010606 20010606 20010607 20010607 20010607 20010608 20010608 20010608 19991207 19991208 19991208 19991208 19990630 19991208 19991209 19991209 19991209 19991209 19991209 19991209 19991213 19990701 19991215 19991215 19991229 19991229 19991230 19991230 19990701 20000104 20000107 20000107 20000107 20000107 20000107 20000107 20000107 20000112 20000117 20000121 20000124 20000131 20000201 20000204 20000204 20000204 20000214 20000214 20000214 20000214 20000215 20000215 20000215 20000215 19791231 20000215 20000216 20000216 20000216 20000216 20000217 20000217 20000217 20000218 20000218 20000218 20000225 20000225 19990514 20000228 20000228 20000301 20000301 20000301 20000302 20000306 20000308 20000308 20000308 20000308 20000308 20000309 20000309 20000309 20000309 20000309 20000309 20000309 20000310 20000313 20000313 20000317 20000328 20000329 20000329 20000329 20000329 20000329 20000329 20000331 20000331 20000406 20000406 20000406 20000406 20000406 20000407 20000412 20000414 20000418 20000418 20000418 20000418 20000421 20000421 20000421 20000421 20000424 20000424 20000424 20000425 20000425 20000425 20000426 20000426 20000426 20000426 20000426 20000426 20000426 20000426 20000426 20000427 20000427 20000428 20000501 20000501 20000501 20000501 20000502 20000509 20000509 20000510 20000510 20000510 19990514 20000510 20000510 20000510 20000510 20000510 20000515 20000516 20000516 20000516 19990709 20000516 20000516 20000516 20000516 20000517 20000517 20000518 20000518 20000518 20000518 20000518 20000518 20000522 20000523 20000523 20000523 20000523 20000524 20000524 20000524 20000526 20000526 20000526 20000526 20000526 20000526 20000530 20000530 20000608 20000608 20000608 20000608 20000612 20000612 20000612 20000613 20000613 20000614 20000614 20000614 20000614 20000614 20000615 20000619 20000619 20000619 20000622 20000623 20000623 20000623 20000623 20000626 20000626 20000626 20000626 20000626 20000629 20000629 20000629 20000629 20000629 20000629 20000630 20000630 20000630 20000630 20000705 20000705 20000712 20000713 20000713 19990514 20000713 20000713 20000713 20000713 20000713 20000713 20000714 20000714 20000714 20000717 19990719 20000717 20000717 20000717 20000718 20000718 20000718 20000718 20000718 20000719 20000719 19990720 20000801 20000801 20000803 20000803 20000804 20000804 20000804 20000804 20000804 19990722 20000804 20000807 20000807 20000807 20000807 20000810 20000810 20000810 20000811 19990809 20000811 20000811 20000811 20000814 20000814 20000814 20000814 20000814 20000814 20000814 20000814 20000814 20000814 20000815 20000815 20000815 20000815 20000816 20000816 20000816 19990817 20000816 20000816 20000816 20000816 20000816 20000816 20000816 20000816 20000817 19990817 20000817 20000821 20000821 20000821 20000821 20000821 20000821 20000825 20000825 20000825 19990824 20000825 20000825 20000825 20000828 20000828 20000828 20000828 20000901 19791231 20000901 20000901 20000901 20000901 20000901 20000901 20000901 20000901 20000906 19990824 20000906 20000906 20000906 20000906 20000906 20000906 20000906 20000906 20000906 20000906 19990824 20000906 20000907 20000907 20000907 20000907 20000907 20000915 19990824 20000915 20000915 20000918 20000918 20000918 20000918 20000919 20000919 19990824 20000919 20000919 20000919 20000919 20000919 20000922 20000922 20000922 19990826 20000922 20000922 20000922 20000922 20000925 20000228 20000612 20000925 20000925 20000925 20000925 19990826 20000925 20000925 20000925 20000925 20000925 20000925 19990826 20000925 20000925 20000926 20000926 20000926 20000926 20000926 20000926 20000926 20000926 19990903 20000926 20000926 20000926 20000927 20001002 19990903 20001002 20001002 20001002 20001003 20001003 20001003 20001003 19990921 20001003 20001003 20001003 20001003 20001004 20001011 20001011 20001011 20001011 19990528 19990921 20001011 20001011 20001012 20001012 20001012 20001012 20001012 20001012 20001012 19990921 20001012 20001013 20001013 20001013 20001013 20001016 20001016 20001016 20001016 20001016 20001017 20001019 19990921 20001019 20001019 20001019 20001020 20001020 20001020 20001020 19990921 20001020 20001020 20001020 20001020 20001020 19990924 20001023 20001023 20001023 20001023 20001023 20001023 20001023 20001023 20001023 19990924 20001024 20001025 20001025 20001025 20001025 20001025 20001025 20001025 19990924 20001026 20001026 20001026 20001026 20001026 20001026 20001026 19990924 20001030 20001030 20001030 20001031 20001031 20001031 20001101 19990924 20001102 20001102 20001103 20001103 20001103 20001103 20001103 20001103 19990528 19990927 20001103 20001103 20001103 20001103 20001103 20001103 20001103 20001106 20001106 19990929 20001106 20001106 20001106 20001106 20001106 20001107 20001107 20001107 19791231 20001107 20001108 20001108 20001108 20001108 19991004 20001108 20001108 20001109 20001109 20001109 20001109 19991005 20001120 20001120 20001121 20001121 20001121 19991005 20001121 20001121 20001121 20001121 20001121 20001122 20001122 19991005 20001122 20001122 20001122 20001122 20001122 20001122 20001122 20001122 19991005 20001122 20001127 20001127 20001128 20001129 19991012 20001204 20001204 20001204 20001206 20001207 19991013 20001208 20001212 20001212 20001212 19990528 19991019 20001212 20001212 20001212 20001212 20001212 20001212 20001212 20001213 20001213 19991019 20001213 20001213 20001214 20001214 20001214 20001214 20001214 19991019 20001214 20001214 20001215 20001218 20001218 20001218 20001218 20001219 19991019 20001219 20001220 20001220 20001220 20001220 20001220 20001220 20001220 19991019 20001220 20001221 20001221 20001229 20001229 20001229 20010102 20010103 20010103 19991019 20010103 20010104 20010104 20010104 20010104 20010104 19991019 20010104 20010104 20010108 20010108 19991020 20010110 20010110 20010110 20010110 20010110 20010110 20010110 20010111 20010111 20010111 19991022 20010112 20010112 20010116 20010116 20010116 20010116 19991027 20010116 20010116 20010116 20010116 20010117 19990528 19991101 20010129 20010129 20010129 20010129 20010129 20010129 19991101 19791231 20010129 20010130 20010131 20010202 20010202 20010202 19991102 20010205 20010205 20010206 20010206 20010206 20010208 19991102 20010208 20010208 20010209 20010209 20010215 20010215 19991104 20010216 20010216 20010216 20010216 20010216 20010216 19991104 20010220 20010220 20010220 19991104 20010221 20010221 20010221 20010221 20010221 20010221 20010221 20010221 20010221 19991104 20010221 20010221 20010221 20010221 20010223 20010223 19991104 20010226 20010226 20010226 20010226 20010226 20010226 20010226 20010226 19991108 20010228 20010228 20010301 20010301 20000329 19990514 20000406 20000705 20001013 20010103 20010607 20010626 20010501 20010330 20010329 20010328 20010412 20010112 20010111 20010605 20010611 20000919 20001025 20001122 20010308 20010328 20010329 20010411 20010412 20010418 20010412 20010514 20010606 20000925 20000828 20001011 20010112 20000612 20000630 20000814 20000919 20001020 20001023 20001025 20001212 20001220 20001220 20010110 20010116 20010327 20010330 20010412 20010416 20010416 20010523 20010524 20010524 19981230 20010523'
p18
aS'20010731 20011116 20011019 20010918 20010822 20010821 20010820 20010813 20010810 20010918 20010807 20010806 20010727 20010723 20010924 20010921 20010919 20010917 20010925 20010907 20010906 20010827 20010827 20011030 20011001 20010928'
p19
aS'20020108 20020130 20011022 20010921 20011211 20010522 20010810 20010710 20011219 20020108 20010821 20010821 20011113 20011025 20011025 20010409 20020206 20020131 20010423 20010424 20010424 20010430 20010502 20010502 20010502 20010504 20010504 20010504 20020131 20010504 20010509 20010509 20010509 20010509 20010511 20010511 20010511 20010514 20010514 20020130 20010515 20010515 20010515 20010515 20010516 20010516 20010517 20010521 20010521 20010521 20020130 20010522 20010522 20010522 20010522 20010522 20010523 20010523 20010523 20010529 20010529 20020129 20010530 20010531 20010531 20010531 20010601 20010604 20010605 20010607 20010607 20011029 20020129 20011029 20011026 20011025 20011025 20011022 20011018 20011017 20011017 20011016 20011016 20020129 20011015 20011015 20011011 20011010 20011009 20011009 20011009 20011002 20011002 20011002 20020129 20011002 20011002 20011002 20010928 20010928 20010928 20010927 20011126 20011127 20011127 20020129 20011127 20011127 20011128 20011129 20011129 20011129 20011130 20011130 20011203 20011204 20020129 20011205 20011212 20020204 20020129 20011030 20011030 20011030 20011031 20020124 20011101 20011101 20011102 20011102 20011106 20011107 20011108 20011112 20011112 20020124 20011112 20011112 20011112 20011112 20011112 20011113 20011113 20011113 20011113 20011113 20020124 20011113 20011113 20011113 20011113 20011114 20011115 20011115 20011115 20011115 20011115 20020122 20011115 20011115 20011115 20011115 20011115 20011116 20011120 20020122 20020117 20020117 20020116 20020116 20020204 20020115 20020115 20020111 20020110 20020110 20020110 20020110 20020108 20020108 20020108 20020204 20020108 20020108 20020108 20020107 20020107 20020107 20020104 20020104 20020104 20020204 20020104 20020103 20020103 20020103 20020103 20020102 20020102 20020102 20020102 20020204 20020102 20011219 20011219 20011219 20011219 20011219 20011218 20011218 20011218 20020201 20020131 20020131 20010417 20010419 20010419 20010419 20010419 20010420 20010423 20010423 20020110 20010522 20010921 20020201 20011017 20020130 20020108'
p20
aS'20011206 20011206 20011025 20011107 20000716 20000719 20000414 20001027 20010130 20010112 20010104 20000721 20011025 20011025 20011117 20011107 20011107 20010911 20010802 20010911 20010802 20020115 20020115 20011109 20011109 20011009 20011205 20000719 20011026 20000606 20010702 20010813 20011109 20011025'
p21
aS'20011022 20000725 20000715 20010423 20010423 20010423 20010216 20010227 20010315 20010319 20010320 20010326 20010327 20010405 20011105 20011029 20011029 20011029 20011029 20010531 20010531 20010604 20010517 20010517 20010518 20010605 20010606 20011116 20011119 20011120 20011120 20011126 20020108 20020107 20020108 20020108 20020107 20020104 20011220 20011220 20011220 20011214 20020117 20010607 20020117 20011024 20011023 20011021 20011019 20011015 20011015 20011015 20011015 20011011 20011031 20011101 20011109 20011119 20020115 20010405 20010327 20010326 20010802 20010301 20010404 20011017 20010923 20010923 20010921 20010920 20010830 20010829 20010829 20010828 20010719 20011115 20011031 20011217 20011212 20011209 20011130 20011130 20010830 20011114 20011015 20010810 20010720 20010717 20010226 20020123 20020206 20000719 20011114 20011109 20011019 20010525 20011015 20010529 20010927 20010924 20020122 20010802 20010531 20010423 20000712 20010116 20010117 20010129 20010326 20011021 20011019 20011016 20011028 20011114 20010531 20010529 20010525 20010522 20010517 20010517 20001210 20010604 20010604 20011026 20010524 20010523 20010523 20010523 20010523 20010523 20010523 20010522 20010522 20010521 20010531 20010604 20010604 20010604 20010604 20010601 20010601 20010601 20010531 20010531 20010531 20010531 20010524 20010524 20010604 20010608 20010525 20010523 20010523 20010529 20010525 20010524 20010524 20010524 20010607 20010607 20010608 20010608 20010605 20010605 20010606 20010606 20010606'
p22
aS'20000627 20010320 20010320 20010504 20010516 20010516 20010516 20000927 20001012 20001018 20001020 20010620 20000820 20010206 20010206 20010206 20010206 20010208 20010208 20010217 20010219 20010219 20010223 20010305 20010509 20010208 20010307 20010526 20010702 20010627 20010521 20010511 20010507 20010504 20010504 20010504 20010504 20010503 20010503 20010502 20010502 20010427 20010424 20010420 20010420 20010420 20010419 20010419 20010419 20010418 20010418 20010417 20010416 20010416 20010416 20010416 20010412 20010412 20010406 20010405 20010403 20010403 20010330 20010328 20010328 20010326 20010326 20010325 20010325 20010323 20010322 20010322 20010321 20010321 20010320 20010320 20010319 20010314 20010314 20010312 20010706 20010706 20010705 20010705 20010705 20010705 20010703 20010702 20010702 20010702 20010702 20010628 20010625 20010621 20010621 20010620 20010619 20010618 20010615 20010611 20010702 20010621 20010402 19991210 20000131 20010404 20010404 20010501 20010404'
p23
aS'20010213 20000309 20001128 20001213 20010614 20001128 20001128 20001101 20010523 20010419 20010116 20010611 20010523 20001128'
p24
aS'20001126 20001212 20000228 20000305 20000111 20000530 20000114 20000114 20000117 20000713 20000725 20000209 20000210'
p25
aS'20011031 20010919 20010919 20011008 20010119 20001213 20001210 20001129 20011008 20010919 20010919 20010816 20010522 20010517 20010816 20001205 20011029 20011029 20010821 20010816 20010815 20010625 20010625'
p26
aS'20001204 20000820 20000814 20000808 20000731 20000828 20000828 20000827 20010115 20020126 20010809 20020102 20011226 20001016 20001019 20001024 20000823 20010123 20010314 20010905 20010810 20011105 20010905 20011024 20011024 20011210 20011206 20011129 20011127 20011121 20011113 20011109 20011101 20011025 20011022 20020111 20020111 20020111 20011130 20011128 20011018 20020111 20011210 20011022 20011112 20011025 20011101 20011101 20011030 20010301 20001222 20001220 20001214 20001102 20001101 20001020 20001020 20010416 20010308 20010418 20010204 20011116 20011119 20000815 20000817 20000929 20001027 20000204 20010314 20010720 20011024 20020104 20011228 20011217 20011209 20011119 20011116 20011115 20011112 20011107 20011026 20010727 20010727 20010726 20010719 20010705 20010703 20010620 20010618 20010607 20010516 20010418 20011107 20011015 20010802 20010426 20020121 20020113 20020201 20020131 20020130 20020129 20010802 20010424 20010412 20010412 20010412 20010409 20010404 20010321 20010320 20010320 20010319 20010316 20010316 20010312 20010223 20010829 20010822 20010807 20010807 20010806 20011030 20010801 20010727 20010713 20020201 20020206 20020205 20020205 20000523 20001005 20000920 20001027 20010121 20010123 20010124 20011023 20011116 20011115 20011112 20011107 20011026 20011024 20011119 20020201 20020129 20020130 20020130 20010124 20010416 20010416 20011210 20020131 20020204 20020111 20020111 20020111 20020205 20020204 20011210 20011121 20011112 20011112 20011108 20011102 20011101 20011101 20011101 20011031 20020131 20011030 20011026 20020123 20020111 20020111 20020111 20011228 20011217 20011210 20020111 20020111 20020111 20011219 20020204 20011210 20011206 20011129 20011127 20011121 20011113 20011102 20010416 20010403 20020131 20010430 20020130 20020130 20011016 20020129 20020121 20020118 20020109 20011022 20011015 20020201 20020102 20010430 20011101 20001117 20001117 19990625 20020109 20010607 20010605 20010601 20010529 20020205 20011210 20011210 20011206 20011129 20020204 20011127 20011121 20011113 20011112 20011109 20020131 20011102 20011101 20011101 20011101 20011031 20011030 20011025 20011022 20011018 20011002 20010831 20010831 20010827 20010822 20010806 20010801 20010727 20020111 20020111 20010703 20020111 20010416 20010405 20010403 20010523 20001222 20010309 20010320 19991115 19991121 19991212 19991229 20000103 20000306 20010827 20011102 20020109 20011228 20011219 20011217 20011210 20011002 20010927 20010827 20010406 20011002 20010720 20011001 20010403 20020204 20020111 20020111 20020111 20020109 20011219 20011213 20010613 20020201 20020131 20010605 20020201 20020130 20020130 20020129 20020121 20020111 20020111 20020111 20020131 20011210 20011101 20020205 20020204 20010907 20011026 20020128 20020128 20011112 20011031 20011119 20020123 20010223 20010223 20010228 20010301 20010308 20010416 20001214 20001220 20001220 20001222 20001206 20001220 20011031 20011016 20020118 20020109 20020109 20011219 20010827 20010822 20010910 20010809 20010806 20010801 20010730 20010727 20010831 20010718 20010703 20010703 20010625 20010615 20020206 20020205 20020204 20020131 20010430 20010402 20010425 20010419 20010419 20010416 20010412 20010412 20010409 20010409'
p27
aS'20010227 20010227 20000413 19991015 20001108 20001130 20001130 20001130 20001130 19991223 20010227'
p28
aS'20010514 20010504 20001018 20001023 20000831 20000831 20000822 20000714 20001017 20001016 20001016 20001013 20001009 20001009 20001005 20001005 20001004 20010504 20001003 20001003 20001003 20001003 20001002 20000928 20000928 20000926 20000926 20000926 20010503 20000926 20000926 20000926 20000926 20000925 20000925 20000925 20000925 20000922 20000920 20010502 20000920 20000919 20000919 20000919 20000918 20000913 20000912 20000912 20000912 20000912 20010502 20000911 20000911 20000911 20000911 20000911 20000908 20000908 20000906 20000906 20000906 20010501 20000906 20000906 20000906 20000905 20000905 20000905 20000901 20000831 20000831 20000831 20010501 20000831 20000831 20000830 20000830 20000829 20000829 20000828 20000828 20000828 20000828 20010430 20000825 20000825 20000825 20000825 20000825 20000824 20000823 20000823 20000823 20000822 20010430 20000821 20000820 20000820 20000820 20000817 20000816 20000816 20000816 20000815 20000810 20010430 20000810 20000810 20000809 20000809 20000809 20000808 20000808 20000808 20000807 20000807 20010514 20010427 20000807 20000805 20000804 20000804 20000803 20000726 20000726 20000726 20000725 20000724 20010427 20000720 20000719 20000718 20000717 20000714 20000714 20000713 20000712 20000711 20000711 20010426 20000711 20000711 20000711 20000710 20000710 20000710 20000710 20000710 20000707 20000707 20010426 20000707 20000707 20000706 20000706 20000630 20000630 20000627 20000627 20000626 20000626 20010426 20000626 20000623 20000622 20000613 20000613 20000612 20000608 20000606 20000606 20000606 20010425 20000605 20000602 20000602 20000531 20000530 20000526 20000526 20000526 20000524 20000523 20010425 20000522 20000519 20000519 20000511 20000501 20000428 20000427 20000427 20000426 20000426 20010425 20000425 20000424 20000413 20000413 20000410 20000406 20000405 20000330 20000328 20000328 20010425 20000328 20000327 20000327 20000324 20000323 20000322 20000322 20000322 20000321 20000320 20010424 20000316 20000315 20000315 20000314 20000314 20000313 20000313 20000313 20000313 20010511 20010424 20000309 20000309 20000307 20000306 20000303 20000303 20000303 20000303 20000302 20000302 20010424 20000228 20000221 20000221 20000217 20000217 20000215 20000215 20000211 20000211 20000209 20010424 20000209 20000207 20000207 20000207 20000207 20000204 20000204 20000202 20000201 20000131 20010424 20000131 20000127 20000118 20000118 20000117 20000113 20000113 20000112 20000110 20010424 20000110 20000107 20000106 20000105 19991211 19991210 20010514 20010514 20010510 20010510 20010423 20010507 20010507 20010506 20010504 20010504 20010503 20010503 20010502 20010501 20010423 20010501 20010501 20010430 20010430 20010430 20010427 20010426 20010426 20010423 20010425 20010425 20010425 20010425 20010424 20010424 20010424 20010424 20010424 20010423 20010423 20010423 20010423 20010423 20010418 20010418 20010418 20010418 20010423 20010418 20010416 20010412 20010412 20010412 20010412 20010411 20010411 20010411 20010510 20010419 20010410 20010410 20010410 20010409 20010409 20010409 20010409 20010406 20010404 20010404 20010418 20010403 20010403 20010402 20010402 20010329 20010329 20010329 20010329 20010329 20010329 20010418 20010328 20010328 20010328 20010328 20010327 20010327 20010327 20010326 20010326 20010326 20010418 20010326 20010326 20010326 20010326 20010326 20010325 20010320 20010319 20010319 20010319 20010418 20010319 20010316 20010315 20010315 20010315 20010315 20010315 20010315 20010314 20010314 20010418 20010314 20010314 20010314 20010314 20010314 20010313 20010313 20010312 20010309 20010418 20010308 20010307 20010307 20010307 20010307 20010307 20010306 20010306 20010306 20010305 20010416 20010305 20010305 20010305 20010305 20010304 20010227 20010224 20010223 20010223 20010223 20001213 20010223 20010223 20010222 20010221 20010221 20010221 20010221 20010221 20010221 20001213 20010221 20010220 20010220 20010220 20010220 20010220 20010220 20010220 20010218 20010218 20010509 20001212 20010217 20010216 20010216 20010216 20010215 20010215 20010215 20010215 20010214 20010214 20001211 20010213 20010213 20010212 20010212 20010212 20010209 20010209 20010208 20010207 20010207 20001207 20010206 20010206 20010206 20010206 20010206 20010205 20010205 20010202 20010202 20010202 20001207 20010202 20010202 20010202 20010202 20010201 20010201 20010131 20010131 20010130 20010130 20001206 20010130 20010129 20010129 20010129 20010129 20010126 20010126 20010126 20010126 20010125 20001206 20010125 20010125 20010125 20010125 20010124 20010124 20010122 20010122 20010122 20010122 20001206 20010118 20010118 20010117 20010115 20010115 20010113 20010112 20010112 20010112 20010112 20010111 20010111 20010110 20010109 20010109 20010108 20010105 20010104 20010104 20001204 20010104 20010104 20010102 20001229 20001228 20001228 20001227 20001227 20001227 20001222 20001129 20001222 20001222 20001220 20001220 20001219 20001218 20001218 20001218 20001218 20010507 20001129 20001215 20001214 20001214 20001214 20001214 20001214 20001128 20001121 20001117 20001117 20001117 20001116 20001116 20001115 20001114 20010507 20001114 20001113 20001113 20001103 20000823 20001103 20001102 20000809 20001102 20001102 20001101 20001101 20010507 20001101 20001031 20001031 20001031 20001031 20001031 20001030 20001027 20001027 20001027 20010504 20001025 20001025 20001024 20001024 20001024 20001024 20001024 20001023 20001020 20001018 19791231 19791231 19791231 19791231 19791231 20010509 20010427 20010426 20010424 20010423 20010419 20010418 20010212 19791231 19791231 20000110 20010620 20001213 20001103 20001207 20010504 20010424 20001129 20010504 20001213 20001222 20010504 20001228 20001228 20001228 20001228 20010424 20010504 20010507 20001213 20001213 20000807 20010507 20010424 20010409 20000807 20010504 20010504'
p29
aS'20011025 20011025 20011112 20000907 20011121 20011204 20000907 20011011 20011005 20010920 20010920 20010920 20010920 20010905 20011126 20011126 20011126 20011126 20011113 20011106 20011105 20011105 20011102 20011101 20011101 20011101 20011031 20011031 20011029 20011029 20011120 20011121 20011025 20011024 20011024 20011024 20011018 20011005 20010921 20010920 20010918 20010917 20010914 20010914 20010913 20010905 20010905 20010831 20010810 20010806 20010626 20011027 20010530 20010530 20010410 20011025 20010705 20011029 20011028 20011028 20011024 20011024 20011029 20011028 20011028 20011120 20011029 20011029 20010531 20011102'
p30
aS'20001204 20001204 20020109 20020104 20010907 20010907 20010608 19991020 20011018 20011009 20010913 20010905 20000818 20000828 20000626 20010405 20010403'
p31
aS'20020306 20020306 20020306 20020306 20020307 20020208 20020227 20020227 20020227 20020228 20020205 20020205'
p32
aS'20011026 20000814 20001213 20000925 20001017 20010926 20000909 20010815'
p33
aS'20011019 20011019 20011016 20011221 20011226 20011226 20011227 20011118 20011116 20011119 20011120 20011121 20011121 20011126 20011227 20011227 20011230 20011127'
p34
aS'20001017 20000804 20010423 20010130 20010130 20011002 20001205 20010124 20010124 20010123 20010123 20010123 20010120 20010119 20010119 20010119 20010119 20001204 20010119 20010118 20010118 20010118 20010118 20010118 20010118 20010117 20010117 20010117 20001204 20010117 20010116 20010116 20010112 20010112 20010111 20010111 20010110 20010110 20001204 20010109 20010107 20010104 20010104 20010103 20010103 20001225 20001222 20001222 20001204 20001222 20001222 20001222 20001222 20001222 20001222 20001221 20001221 20001221 20001204 20001221 20001220 20001220 20001220 20001220 20001220 20001220 20001219 20001219 20001219 20001203 20001219 20001219 20001218 20001215 20001215 20001214 20001203 20001203 20001203 20001213 20001203 20001203 20001129 20001203 20001203 20001203 20001201 20001127 20001127 20001127 20001127 20001212 20001122 20001122 20001121 20001113 20001113 20001113 20001113 20001109 20001106 20001106 20001211 20001106 20001103 20001103 20001103 20001103 20001102 20001101 20001101 20001101 20001031 20001211 20001031 20001031 20010226 20010226 20010226 20010226 20010223 20010223 20010223 20010222 20001209 20010222 20010222 20010220 20010220 20010214 20010214 20010214 20010212 20010212 20010212 20001208 20010212 20010212 20010209 20010208 20010208 20010208 20010207 20010207 20010206 20010206 20001206 20010205 20010205 20010205 20010205 20010205 20010205 20010202 20010201 20010131 20010131 20001206 20010130 20010130 20010130 20010130 20010130 20010130 20010129 20010126 20010126 20010124 20001006 20001006 20001006 20001006 20001006 20001006 20000927 20001023 19791231 20000915 20000907 20000907 20001023 20001023 20001023 20010227 20010227 20010227 20011115 20010110 20011217 20011031 20011101 20020129 20020123 20011102 20011104 20011104 20011104 20011104 20011105 20011105 20011105 20011106 20020122 20011106 20011106 20011106 20011106 20011107 20011107 20011107 20011112 20011112 20011112 20020122 20011112 20011112 20011115 20011115 20011116 20011116 20011116 20011116 20011119 20011119 20020122 20011119 20011127 20011127 20010226 20010226 20010226 20010226 20010223 20010223 20010223 20020121 20010222 20010222 20010222 20010220 20010220 20010214 20010214 20010214 20010212 20010212 20020118 20010212 20010212 20010212 20010209 20010208 20010208 20010208 20010207 20010207 20010206 20020118 20010206 20010205 20010205 20010205 20010205 20010205 20010205 20010202 20010202 20010201 20020118 20010131 20010131 20010130 20010130 20010130 20010130 20010130 20010130 20010130 20010126 20020118 20010126 20010227 20010227 20010227 20010228 20010301 20010301 20010301 20010301 20020114 20010301 20010302 20010302 20010302 20010302 20010309 20010309 20010309 20010314 20010315 20020129 20020114 20010315 20010315 20010315 20010315 20010319 20010319 20010319 20010320 20010321 20010322 20020113 20010322 20010323 20010323 20010323 20010326 20010326 20010327 20010329 20010404 20010404 20020110 20010404 20010405 20010409 20010409 20010409 20010410 20010410 20010410 20010411 20010412 20020107 20010412 20010412 20010416 20010416 20010416 20010417 20010418 20010423 20010423 20010423 20020106 20010424 20010424 20010424 20010425 20010425 20010425 20010427 20010501 20010501 20010502 20020104 20010503 20010504 20010507 20010508 20010508 20010510 20010510 20010510 20010510 20010514 20020103 20010514 20010515 20010521 20010521 20010521 20010521 20010521 20010521 20010522 20010522 20020102 20010523 20010523 20010524 20010530 20010530 20010530 20010530 20010530 20010531 20010604 20020101 20010604 20010605 20010606 20010607 20010608 20010614 20010618 20010618 20010618 20010619 20011230 20010619 20010620 20010621 20010621 20010621 20010628 20010628 20010702 20010709 20010709 20020129 20011226 20010709 20010718 20010718 20010718 20010718 20010720 20010720 20010720 20010720 20010720 20011221 20010720 20010720 20010720 20010720 20010720 20010720 20010723 20010725 20010725 20010727 20011220 20010730 20010801 20010801 20010802 20010802 20010802 20010802 20010806 20010806 20010807 20011220 20010809 20010810 20010810 20010810 20010810 20010810 20010813 20010813 20010813 20010813 20011219 20010813 20010813 20010905 20010905 20010905 20010905 20010912 20010912 20010912 20010913 20011219 20010913 20010913 20010913 20010914 20010918 20010918 20010919 20010919 20010919 20010919 20011219 20010919 20010919 20010920 20010921 20010924 20010927 20010927 20011001 20011002 20011002 20011217 20011002 20011003 20011003 20011004 20011004 20011005 20011005 20011005 20011008 20011010 20011217 20011010 20011010 20011011 20011011 20011012 20011012 20011012 20011012 20011015 20011217 20011017 20011017 20011017 20011017 20020129 20011214 20011214 20011214 20011214 20011214 20011213 20011213 20011213 20011212 20020125 20011212 20011212 20011211 20011211 20011211 20011210 20011210 20011209 20011209 20011209 20020125 20011208 20011207 20011207 20011206 20011206 20011206 20011206 20011205 20011205 20011204 20020124 20011204 20011204 20011022 20011022 20011025 20011025 20011025 20011025 20011025 20011026 20020124 20011027 20011028 20011029 20011030 20011030 20011030 20011031 20011031 20011031 20011031 20020123 20011031 20011031 20011101 20011101 20011101 20011101 20011101 20011101 20011101 20011101 20010227 20001121 20011112 20011116 20000522 20011230 20011112 20020102 20011112 20011029 20010523 20011025 20010523 20001206 20011112 20011116 20011029 20010530 20001122 20011001'
p35
aS'20000117 20010214 20010226 20010329 20010402 20010402 20010410 20010416 20010418 20010419 20011120 20010419 20010329 20010525 20010515 20010418 20010416 20010410 20010402 20010402 20001212 20011015 20010410 20010921 20010810 20011113 20011106 20011105 20011015 20011001 20010927 20010926 20010307 20010515 20001110 20001211 20011016 20011106 20011107 20000926 20011127 20011115 20011026 20011023 20011022 20011017 20011009 20011009 20010713 20020102 20020102 20011220 20011115 20011025 20011025 20011023 20011023 20010813 20010703 20011008 20010529 20010525 20010515 20010515 20010511 20010425 20010424 20010419 20010416 20010416 20010410 20010402 20010329 20010321 20010315 20010314 20010307 20010302 20010226 20010214 20010612 20010626 20010625 20010620 20011102 20010405 20010321 20010703 20010328 20010320 20010320 20010927 20010927 20010316 20010316 20010409 20010405 20010405 20010706 20010705 20010516 20010424 20010411 20010323 20010315 20010315 20020102 20020102 20010525 20010515 20001106 20010412 20010418 20010201 20010226 20010227 20010525 20020102 20020102 20011227 20011227 20010509 20010522 20011022 20011015 20011001 20011113 20010509 20010514 20010531 20010730 20010807 20010809 20011205 20011211 20011211 20020102 20020102 20011107 20011112 20011113 20010531 20020204 20020204 20020123 20020115 20020114 20020114 20020111 20020111 20001211 20001112 20010614 20010614 20001211 20010110 20010116 20010116 20010117 20010326 20010509 20011015 20011210 20010611 20011023 20010515 20010416 20011112 20011116 20011126 20010906 20011008 20011106'
p36
aS'20001023 20001013 20000608 20000530 20000315 20010416 20010319 20010105 20010129 20010123 20001122 20001025 20001004 20000901 20000822 20000804 20000707 20000622 20010313 20000612 20000908 20010503 20010607 20010607 20010105 20010605 20001207 20001113 20010531 20010531 20000921 20010531 20000905 20000829 20000828 20010215 20001012 20001012 20001012 20001012 20001012 20001012 20001011 20001011 20001011 20001011 20010215 20001011 20001011 20001011 20001011 20001010 20001010 20001010 20001010 20001010 20001010 20001010 20001010 20001010 20001010 20001010 20001010 20001010 20001010 20001010 20001010 20010214 20001010 20001010 20001010 20001010 20001010 20001010 20001006 20001006 20001006 20001006 20010214 20001006 20001006 20001006 20001006 20001006 20001006 20001005 20001005 20001005 20001005 20010214 20001005 20001005 20001005 20001005 20001005 20001005 20001005 20001005 20001005 20001005 20010214 20001005 20001004 20001004 20001004 20001004 20001004 20001004 20001004 20001004 20001004 20010213 20001004 20001003 20001003 20001003 20001003 20001003 20001003 20001003 20001003 20001003 20010213 20001003 20001002 20001002 20001002 20001002 20001002 20001002 20001002 20001002 20001002 20010213 20001002 20001002 20001002 20001002 20001002 20001002 20001002 20001002 20001002 20001002 20010213 20001002 20001002 20001002 20001002 20001002 20001002 20001002 20001002 20001002 20001002 20010212 20001002 20001002 20001002 20001002 20001002 20001002 20001002 20001002 20001002 20001002 20010212 20001002 20001002 20001002 20001002 20001002 20001002 20001002 20001002 20010212 20000807 20001107 20001016 20001012 20010212 20010212 20010212 20010212 20010212 20010212 20010211 20010209 20010209 20010209 20010209 20010209 20010209 20010209 20010209 20010209 20010209 20010209 20010209 20010208 20010208 20010208 20010207 20010207 20010207 20010207 20010207 20010206 20010206 20010206 20010206 20010206 20010206 20010206 20010206 20010206 20010206 20010205 20010205 20010205 20010205 20010205 20010205 20010205 20010205 20010205 20010205 20010131 20010131 20010131 20010131 20010131 20010131 20010131 20010131 20010131 20010131 20010131 20010130 20010130 20010130 20010130 20010130 20010130 20010129 20010129 20010129 20010129 20010129 20010129 20010129 20010129 20010129 20010129 20010129 20010129 20010129 20010129 19791231 20010129 20010129 20010129 20010129 20010129 20010129 20010129 20010129 20010128 20010126 20010126 20010126 20010126 20010126 20010126 20010126 20010126 20010126 20010126 20010126 20010126 20010126 20010126 20010126 20010126 20010126 20010126 20010126 20010123 20010123 20010123 20010123 20010123 20010123 20010123 20010123 20010123 20010123 20010123 20010123 20010123 20010123 20010123 20010123 20010123 20010123 20010123 20010123 20010123 20010123 20010123 20010123 20010123 20010122 20010122 20010122 20010122 20010122 20010122 20010122 20010122 20010122 20010122 20010122 20010122 20010119 20010119 20010119 20010119 20010119 20010119 20010119 20010119 20010119 20010119 20010119 20010119 20010119 20010119 20010119 20010119 20010119 20010118 20010118 20010118 20010118 20010117 20010117 20010117 20010117 20010117 20010117 20010117 20010117 20010116 20010116 20010116 20010116 20010116 20010116 20010116 20010116 20010116 20010116 20010116 20010115 20010115 20010112 20010112 20010112 20010112 20010112 20010112 20010112 20010112 20010112 20010112 20010112 20010111 20010111 20010111 20010111 20010111 20010111 20010111 20010111 20010111 20010111 20010111 20010110 20010110 20010110 20010110 20010110 20010110 20010110 20010110 20010110 20010110 20010110 20010109 20010109 20010109 20010109 20010109 20010109 20010109 20010109 20010109 20010109 20010109 20010109 20010109 20010109 20010109 20010109 20010109 20010109 20010109 20010109 20010109 20010109 20010107 20010107 20010107 20010107 20010107 20010107 20010107 20010105 20010105 20010105 20010105 20010105 20010105 20010105 20010105 20010104 20010104 20010104 20010104 20010104 20010103 20010103 20010103 20010103 20010103 20010103 20010103 20010103 20010103 20010103 20010103 20010103 20010103 20010103 20010103 20010103 20010103 20010103 20010103 20010103 20010103 20010102 20010102 20010102 20010102 20010102 20010102 20010102 20010102 20010102 20010102 20010101 20010101 20010101 20001229 20001229 20001229 20001229 20001228 20001228 20001228 20001228 20001228 20001228 20001228 20001227 20001227 20001227 19791231 20001227 20001227 20001227 20001227 20001227 20001227 20001227 20001227 20001227 20001227 20001227 20001227 20001227 20001227 20001227 20001227 20001227 20001227 20001227 20001227 20001227 20001220 20001220 20001220 20001220 20001220 20001220 20001220 20001220 20001220 20001220 20001220 20001220 20001219 20001219 20001219 20001219 20001219 20001219 20001219 20010215 20001219 20001219 20001219 20001219 20001219 20001219 20001219 20001219 20001219 20001218 20001218 20001218 20001218 20001218 20001218 20001218 20001218 20001218 20001218 20001218 20010226 20001218 20001218 20001218 20001218 20001218 20001218 20001218 20001218 20001218 20010226 20001218 20001217 20001217 20001217 20001217 20001217 20001215 20001215 20001215 20001215 20010226 20001215 20001215 20001215 20001215 20001215 20001215 20001214 20001214 20001214 20001214 20010226 20001214 20001214 20001214 20001214 20001214 20001214 20001214 20001214 20001214 20001214 20010226 20001214 20001214 20001213 20001213 20001213 20001213 20001213 20001213 20001213 20001213 20010226 20001213 20001213 20001213 20001213 20001212 20001212 20001212 20001212 20001212 20010226 20001212 20001212 20001212 20001212 20001212 20001212 20001212 20001212 20001212 20001211 20010226 20001211 20001211 20001211 20001211 20001211 20001211 20001211 20001209 20001209 20001209 20010226 20001209 20001209 20001209 20001209 20001209 20001209 20001207 20001207 20001207 20001207 20010226 20001207 20001206 20001206 20001206 20001206 20001206 20001206 20001206 20001206 20001206 20010226 20001205 20001205 20001205 20001205 20001205 20001205 20001205 20001204 20001204 20001204 20010226 20001204 20001204 20001204 20001203 20001201 20001201 20001201 20001201 20001201 20001201 20010223 20001201 20001201 20001201 20001201 20001201 20001201 20001201 20001201 20001201 20001130 20010222 20001130 20001130 20001130 20001130 20001129 20001129 20001129 20001129 20001128 20001128 20010222 20001128 20001128 20001128 20001128 20001128 20001128 20001128 20001128 20001128 20001128 20010222 20001128 20001128 20001127 20001127 20001127 20001127 20001126 20001126 20001122 20001122 20010222 20001122 20001122 20001122 20001122 20001122 20001122 20001122 20001117 20001117 20001117 20010222 20001117 20001117 20001117 20001117 20001117 20001117 20001115 20001115 20001115 20001115 20010222 20001115 20001115 20001114 20001114 20001114 20001114 20001114 20001114 20001114 20001114 20010222 20001114 20001114 20001114 20001114 20001114 20001114 20001113 20001113 20001113 20001113 20010222 20001113 20001113 20001113 20001113 20001113 20001113 20001113 20001113 20001113 20001113 20010222 20001113 20001113 20001113 20001113 20001113 20001113 20001113 20001113 20001113 20001113 20010221 20001112 20001110 20001110 20001110 20001110 20001110 20001110 20001109 20001109 20001109 20010221 20001109 20001109 20001109 20001109 20001109 20001109 20001109 20001109 20001109 20001109 20010221 20001109 20001109 20001109 20001109 20001108 20001108 20001108 20001108 20001108 20001108 20010221 20001108 20001108 20001108 20001108 20001107 20001107 20001107 20001107 20001107 20001107 20010221 20001107 20001107 20001107 20001107 20001107 20001107 20001107 20001107 20001107 20001107 20010221 20001107 20001107 20001107 20001107 20001107 20001107 20001107 20001107 20001107 20001107 20010221 20001107 20001107 20001107 20001107 20001107 20001107 20001107 20001107 20001107 20001106 20010221 20001106 20001106 20001106 20001106 20001106 20001106 20001106 20001106 20001106 20001106 20010221 20001106 20001106 20001106 20001106 20001027 20001027 20001027 20001027 20001027 20010221 20001027 20001027 20001027 20001027 20001027 20001027 20001027 20001027 20001027 20001027 20010221 20001026 20001026 20001026 20001026 20001026 20001026 20001026 20001026 20001026 20001026 20010221 20001026 20001026 20001026 20001026 20001025 20001025 20001025 20001025 20001025 20001025 20010220 20001025 20001025 20001025 20001025 20001025 20001025 20001025 20001025 20001025 20001025 20010220 20001025 20001025 20001025 20001025 20001025 20001024 20001024 20001024 20001024 20001024 20010220 20001024 20001024 20001024 20001024 20001024 20001024 20001024 20001024 20001024 20001024 20010220 20001023 20001023 20001023 20001023 20001023 20001023 20001023 20001023 20001023 20001023 20010220 20001023 20001023 20001023 20001023 20001023 20001023 20001023 20001023 20001023 20001023 20010220 20001023 20001023 20001023 20001023 20001023 20001023 20001023 20001023 20001023 20001023 20010220 20001023 20001020 20001020 20001020 20001020 20001020 20001019 20001019 20001019 20001019 20010220 20001019 20001019 20001019 20001018 20001018 20001018 20001018 20001018 20001018 20001018 20001018 20001018 20001018 20001018 20001018 20001018 20001018 20001018 20001018 20001018 20010215 20001017 20001017 20001017 20001017 20001017 20001017 20001017 20001017 20001017 20001017 20010215 20001017 20001017 20001017 20001017 20001017 20001017 20001017 20001017 20001017 20001017 20010215 20001017 20001016 20001016 20001016 20001016 20001016 20001016 20001016 20001013 20001013 20010215 20001013 20001013 20001013 20001013 20001012 20001012 20001012 20001012 20001012 20001012 20010112 20010209 20000531 20000601 20000605 20000605 20000606 20010515 20001113 20010515 20010611 20010621 20010621'
p37
aS'20001213 20011115 20011119 20011119 20011115 20010926 20020110 20020110 20011126 20020115 20011115 20011022 20010910 20011029 20010811 20010910 20011108 20011113 20011113 20011022'
p38
aS'20000627 20010220 20020118 20010810 20010906 20020118 20020118 20010924 20010904 20011213 20010904 20010924 20020110 20011217 20010516 20010521 20010503 20010323 20010731 20010522 20010302 20010207 20011207 20011127 20011121 20011120 20011120 20010412 20010326 20010326 20010313 20010312 20011120 20011121 20011003 20011018 20010905 20011121 20010703 20011120 20010521 20010522 20010607 20010607 20011212 20011120 20011121 20010516 20010529'
p39
aS'20011003 20010611 20010927 20011019 20011025 20011024 20011023 20011022 20011019 20011019 20011019 20011019 20011019 20011018 20011018 20011017 20011017 20011015 20011015 20011226 20011210 20011207 20011206 20011205 20011205 20011204 20011019 20011019 20011227 20011228 20011228 20011228 20010615 20011019 20011017 20011019 20011126 20011120 20011120 20011114 20011108 20011025 20011024 20010919 20011029 20010827 20011210 20011030 20011018 20011019 20011023 20010924 20010924 20010925 20010820 20010822 20010908 20010625 20010913 20010712 20010629 20010713 20010821 20010823 20011016 20011016 20011016 20010928 20010822 20011213 20011211 20020102 20020114 20020114 20020115 20020308 20020305 20020311 20020225 20020226 20020211 20020208 20020201 20020124 20020306 20020305 20020122 20020318 20011213 20020114 20020116 20020115 20011019 20020103 20011019 20020318 20020318 20020308 20020301 20011018 20011018 20011023 20011213 20020320 20020321 20020205 20020204 20020201 20020201 20020131 20020124 20020208 20020228 20020225 20020122 20020114 20020201 20020206 20020211 20020228 20020228 20020228 20020318'
p40
aS'20000117 20011018 20011029 20011210 20010910 20020225 20001212 20010529 20001219 20001218 20011025 20011119 20011120 20010502 20010420 20010320 20000822 20000907 20011116 20011024 20011016 20011009 20011212 20020103 20020103 20011116 20011120 20010621 20010605 20010514'
p41
aS'20001215 20000509 20000314 20011120 20011130 20011120 20000622 20000307 20000110 20000515 20010131 20001002 20011119 20010507 20011018 20010709 20010424 20010402 20010709 20011002 20011002 20000605 20000605 20011120 20001003 20001018 20011015 20011009 20011004 20011113 20000724 20010227 20010406 20010409 20010501 20000606 20010718 20010709 20000622 20010612 20011015 20011119 20011120 20010524 20001205 20010524 20010603 20010604'
p42
aS'20011029 20011029 20011029 20011012 20011102 20011105 20011113 20011115 20020124 20010413 20001227 20001229 20010116 20010220 20011217 20011017 20011017 20011023 20011207 20010220 20010122 20010116 20001229 20011207 20010314 20011022 20011206 20020510 20010802 20011130 20011120 20011211 20011120 20010727 20011121 20011022 20010516'
p43
aS'20000209 20000208 20000129 19991114 19991121 20000108 19991015 20001222 20010530'
p44
aS'20000111 20001026 20001026 20001023 20000727 20010328 20010725 20010803 20010409 20001210 20001207 20010511'
p45
aS'20010823 20010823 20010823 20010825 20011202 20010825 20011018 20011029 20011102 20000710 20010530 20010823 20010816 20011219 20011219 20010925 20010911 20010902 20010829 20010829 20010827 20010825 20010824 20010823 20010823 20011010 20010823 20011018 20011226 20010430 20010823 20011102'
p46
aS'20011127 20020603 20011127 20010523 20010604 20010605 20011012 20011127 20011121 20011127 20020129 20020118 20010612 20011116 20011115 20011119 20011120 20011121 20011126 20011127 20011121 20011127 20011127 20011121 20011127 20011127 20011121 20011127 20011127 20011012 20011127 20011012 20011127 20011127 20011127'
p47
aS'20001005 20001003 20000816 20001114 20011008 20011009 20011009 20011008 20011206 20001114 20001208 20010410 20011015 20010409 20011009 20011009 20011015 20011008 20010607 20010605 20010430 20010430 20010430 20010430 20010430 20010426 20010426 20010426 20010425 20010425 20010605 20010425 20010425 20010425 20010418 20010418 20010412 20010605 20010412 20010411 20010410 20010410 20010410 20010410 20010410 20010410 20010410 20010410 20010604 20010410 20010410 20010410 20010410 20010410 20010409 20010409 20010409 20010409 20010409 20010604 20010409 20010409 20010409 20010409 20010409 20010409 20010409 20010409 20010409 20010409 20010604 20010409 20010409 20010404 20010404 20010404 20010403 20010403 20010402 20010402 20010402 20010601 20010330 20010330 20010329 20010329 20010325 20010322 20010322 20010322 20010322 20010601 20010321 20010321 20010321 20010320 20010319 20010319 20010319 20010601 20010305 20010304 20010302 20010302 20010301 20010301 20010301 20010226 20010226 20010601 20010225 20010223 20010223 20010223 20010221 20010221 20010221 20010221 20010221 20010607 20010531 20010221 20010220 20010215 20010214 20010214 20010214 20010212 20010212 20010212 20010531 20010211 20010209 20010209 20010209 20010209 20010209 20010209 20010209 20010209 20010209 20010531 20010209 20010209 20010209 20010209 20010208 20010208 20010208 20010207 20010207 20010531 20010207 20010207 20010207 20010206 20010206 20010206 20010206 20010206 20010206 20010529 20010206 20010206 20010205 20010205 20010205 20010205 20010205 20010205 20010205 20010205 20010529 20010205 20010131 20010131 20010131 20010131 20010131 20010129 20010129 20010529 20010129 20010129 20010123 20010123 20010123 20010123 20010123 20010123 20010123 20010122 20010529 20010122 20010122 20010122 20010122 20010121 20010120 20010119 20010119 20010118 20010118 20010525 20010118 20010116 20010116 20010116 20010116 20010111 20010110 20010108 20010108 20010525 20010108 20010108 20010108 20010108 20010107 20010107 20010107 20010105 20010105 20010105 20010607 20010525 20010105 20010105 20010105 20010105 20010105 20010104 20010104 20001229 20001229 20010525 20001229 20001229 20001228 20001228 20001228 20001228 20001228 20001228 20001228 20010525 20001227 20001221 20001219 20001219 20001219 20001214 20001214 20001214 20010525 20001214 20001214 20001211 20001211 20001211 20001211 20001211 20001209 20001208 20001208 20010525 20001208 20001208 20001208 20001208 20001208 20001208 20001208 20001208 20001207 20001207 20010524 20001207 20001207 20001207 20001207 20001207 20001206 20001206 20001205 20001205 20001204 20010523 20001204 20001204 20001201 20001201 20001201 20001201 20001129 20001129 20001129 20001129 20010523 20001129 20001129 20001129 20001129 20001129 20001129 20001129 20001129 20001129 20001129 20010523 20001128 20001127 20001127 20001126 20001122 20001122 20001121 20001121 20001121 20010523 20001116 20001116 20001116 20001116 20001116 20001116 20001116 20001114 20001114 20010523 20001114 20001114 20001114 20001114 20001114 20001114 20001114 20001113 20001113 20001113 20010523 20001113 20001113 20001113 20001113 20001113 20001113 20001113 20001110 20001110 20001110 20001110 20001110 20001110 20001109 20001109 20001107 20001107 20001107 20001106 20001106 20010523 20001106 20001106 20001106 20001106 20001102 20001102 20001030 20001030 20001030 20010523 20001030 20001030 20001030 20001030 20001030 20001030 20001030 20001030 20001030 20001030 20010521 20001030 20001030 20001030 20001030 20001030 20001030 20001030 20001030 20001030 20001030 20010521 20001027 20001026 20001026 20001025 20001025 20001025 20001025 20001025 20001025 20001025 20010521 20001025 20001025 20001025 20001024 20001024 20001024 20001023 20001020 20001020 20010521 20001019 20001019 20001019 20001019 20001019 20001019 20001018 20001017 20001016 20001016 20010517 20001016 20001016 20001012 20001012 20001012 20001012 20001011 20010607 20010517 20001011 20001011 20001011 20001010 20001010 20001010 20001010 20001010 20001010 20001010 20010517 20001009 20001009 20001009 20001009 20001009 20001009 20001009 20001005 20001003 20001003 20010517 20001003 20001002 20001002 20001002 20001002 20001002 20001002 20001002 20001002 20000928 20010517 20000928 20000928 20000927 20000927 20000927 20000925 20000925 20000925 20000925 20010517 20000925 20000925 20000925 20000924 20000924 20000924 20000920 20000918 20000918 20010517 20000915 20000915 20000915 20000914 20000912 20010517 20000911 20000911 20000911 20000911 20000911 20000911 20000911 20000911 20000911 20000911 20010517 20000911 20000911 20000908 20000908 20000908 20000907 20000907 20000907 20000907 20000907 20010511 20000907 20000907 20000907 20000906 20000906 20000906 20000906 20000905 20010511 20000830 20000829 20000828 20000828 20000828 20000828 20000828 20000828 20000828 20000828 20010606 20010510 20000828 20000826 20000826 20000826 20000826 20000823 20000821 20000821 20000817 20010510 20000817 20000817 20000817 20000817 20000817 20000817 20000816 20000816 20000816 20000816 20010510 20000816 20000816 20000816 20000811 20000811 20000810 20000810 20000809 20000809 20000808 20010510 20000808 20000808 20000808 20000807 20000807 20000807 20000807 20000807 20000807 20000807 20010509 20000807 20000807 20000807 20000807 20000807 20000806 20000806 20000806 20000804 20010509 20000804 20000804 20000802 20000802 20000802 20000802 20000802 20000801 20000801 20000801 20010509 20000801 20000801 20000801 20000801 20000801 20000731 20000731 20000731 20000731 20000731 20010509 20000731 20000731 20000728 20000728 20000728 20000728 20000728 20010508 20000728 20000728 20000728 20000728 20000728 20000728 20000728 20000728 20000728 20000728 20010508 20000728 20000728 20000728 20000727 20000727 20000727 20000727 20000727 20000727 20000726 20010606 20010508 20000726 20000725 20000725 20000725 20000724 20000723 20000723 20000723 20000723 20010508 20000723 20000723 20000723 20000723 20000723 20000723 20000723 20000723 20000723 20000723 20000718 20000718 20000718 20000718 20000718 20000718 20000717 20000717 20010508 20000713 20000713 20000713 20000712 20000712 20000712 20000712 20000712 20000712 20000712 20010508 20000712 20000712 20000711 20000711 20000711 20000711 20000711 20000711 20000711 20000711 20010507 20000711 20000711 20000711 20000711 20000711 20000711 20000710 20000710 20000708 20000708 20010507 20000708 20000708 20000708 20000708 20000707 20000707 20000707 20000707 20000707 20000707 20010507 20000707 20000707 20000706 20000705 20000705 20000705 20000630 20000630 20000630 20010507 20000630 20000630 20000630 20000629 20000628 20000623 20000623 20000623 20000622 20010507 20000621 20000615 20000615 20000613 20000613 20000613 20000611 20000611 20000611 20000609 20010606 20010504 20000609 20000608 20000608 20000607 20000607 20000607 20000607 20000607 20000607 20000607 20010504 20000607 20000607 20000607 20000607 20000607 20000605 20000605 20000605 20000605 20000605 20010504 20000602 20000828 20000828 20000615 20010503 20010503 20010503 20010503 20010503 20010503 20010502 20010606 20010501 20010501 20010501 20000713 20010517 20010510 20010508 20010404 20001211 20001208 20001206 20001129 20001010 20010531 20001010 20001208 20001214 20010404 20011029 20010404 20010531 20001211 20001208 20001206 20001129 20001010 20010517 20010508 20011024 20011023 20011023 20011017 20011114 20011112 20011102 20011119 20011127 20011015 20001207 20011015 20011011 20010820 20001208'
p48
aS'20010112 20010509 20010509 20010509 20010510 20000321 20010312 20010227'
p49
aS'20020115 20000420 20000111 20011127 20010525 20010429 20001130 20000916 20000901 20010530 20000807 20000731 20011023 20011022 20010717 20011113 20011113 20011112 20011112 20011112 20011126 20011126 20011029 20011029 20010511 20011119 20011122 20001114'
p50
aS'20001212 20001211 20001211 20001208 20001208 20001208 20001208 20001208 20001208 20001208 20001208 20001212 20001206 20001206 20001206 20001205 20001205 20001205 20001205 20001204 20001203 20001212 20001203 20001201 20001201 20001201 20001201 20001201 20001201 20001201 20001201 20001201 20001212 20001201 20001201 20001201 20001201 20001201 20001121 20001121 20001120 20001120 20001009 20001212 20000607 20010111 20001212 20001212 20001212 20001211 20000617 20000725 20000601 20010412 20010522 20010409 20010524 20010307 20010213 20010524 20010213 20010525 20010529 20010529 20010620 20010727 20010531 20010803 20010531 20010606 20010924 20010213 20010213 20011121 20011129 20011221 20011226 20010214 20010417 20010213 20010307 20010406 20010219 20010409 20010227 20010529 20010227 20010307 20010307 20010307 20010403 20010405 20010405 20010307 20010417 20010406 20010406 20010409 20010409 20010409 20011027 20011019 20011018 20011016 20011016 20010417 20011016 20011016 20011014 20011014 20011014 20011007 20011007 20011003 20010927 20010927 20010429 20010926 20010924 20010921 20010904 20010904 20010831 20010830 20010829 20010822 20010822 20010429 20010822 20010822 20010822 20010821 20010821 20010817 20010816 20010815 20010815 20010813 20010507 20010810 20010810 20010810 20010803 20010803 20010803 20010802 20010731 20010727 20010628 20010518 20010626 20010620 20010620 20010620 20010614 20010614 20010611 20010531 20010522 20010529 20010525 20010524 20010524 20010522 20010507 20010416 20010412 20010412 20010521 20010521 20010521 20010522 20010522 20010522 20010522 20010522 20010523 20010523 20010413 20010523 20010524 20010524 20010524 20010524 20010524 20010525 20010525 20010525 20010525 20010413 20010525 20010525 20010525 20010525 20010525 20010525 20010529 20010529 20010529 20010529 20010413 20010529 20010530 20010530 20010530 20010530 20010530 20010530 20010530 20010531 20010531 20010531 20010531 20010604 20010604 20010604 20010604 20010604 20010605 20010605 20010607 20010413 20010607 20010608 20010608 20010608 20010608 20010608 20010608 20010608 20010608 20010307 20010413 20010320 20010320 20010320 20010320 20010320 20010320 20010320 20010320 20010320 20010320 20010416 20010320 20010320 20010320 20010320 20010320 20010320 20010320 20010320 20010320 20010320 20010416 20010321 20010321 20010321 20010321 20010321 20010321 20010321 20010321 20010321 20010416 20010321 20010321 20010327 20010327 20010327 20010327 20010327 20010327 20010328 20010412 20010416 20010328 20010328 20010330 20010402 20010402 20010402 20010402 20010402 20010402 20010402 20010416 20010402 20010402 20010402 20010402 20010402 20010402 20010402 20010402 20010416 20010402 20010402 20010402 20010402 20010402 20010403 20010403 20010404 20010404 20010404 20010417 20010404 20010404 20010405 20010405 20010405 20010405 20010406 20010406 20010406 20010406 20010417 20010406 20010406 20010406 20010406 20010406 20010406 20010406 20010406 20010406 20010406 20010417 20010406 20010409 20010409 20010409 20010409 20010409 20010409 20010409 20010409 20010409 20010417 20010409 20010409 20010409 20010409 20010410 20010410 20010410 20010411 20010411 20011029 20010417 20011029 20011029 20011029 20011029 20011029 20011029 20011029 20011029 20011029 20011029 20010417 20011029 20011027 20011027 20011027 20011026 20011026 20011026 20011026 20011026 20011026 20010417 20011026 20011026 20011026 20011026 20011025 20011025 20011025 20011025 20011025 20010412 20010417 20011025 20011024 20011024 20011024 20011024 20011024 20011024 20011023 20011023 20011023 20010418 20011023 20011023 20011023 20011023 20011022 20011021 20011021 20011020 20011020 20011020 20010418 20011020 20011019 20011019 20011019 20011019 20011019 20011018 20011018 20011018 20011018 20010418 20011018 20011017 20011017 20011017 20011017 20011017 20011016 20011016 20011016 20010419 20011016 20011015 20011015 20011015 20011015 20011012 20011012 20011012 20011011 20010419 20011011 20011011 20011011 20011011 20011011 20011011 20011011 20011011 20011011 20011010 20010419 20011010 20011009 20011009 20011009 20011009 20011009 20011009 20011009 20011009 20011009 20010419 20011009 20011009 20011009 20011009 20011008 20011008 20011008 20011008 20011008 20011007 20010423 20011005 20011005 20011005 20011005 20011005 20011003 20011003 20011003 20011003 20011003 20011003 20011002 20011002 20011002 20011002 20011002 20011002 20011002 20011002 20011002 20010412 20010423 20011002 20011002 20011002 20011001 20011001 20011001 20010928 20010927 20010927 20010423 20010927 20010927 20010927 20010927 20010927 20010927 20010926 20010926 20010926 20010926 20010423 20010926 20010926 20010926 20010926 20010924 20010914 20011126 20011126 20011128 20011128 20010423 20011128 20011128 20011128 20011128 20011128 20011128 20011128 20011128 20011128 20011128 20010423 20011128 20011128 20011128 20011128 20011128 20011128 20011129 20011129 20011129 20011129 20010423 20011129 20011129 20011129 20011129 20011129 20011129 20011130 20011130 20011201 20011201 20010424 20011204 20011206 20011210 20011211 20011211 20011214 20011214 20011214 20011217 20011217 20010424 20011219 20011219 20011220 20011221 20010424 20010424 20010412 20010424 20010424 20010424 20011030 20011030 20011030 20011030 20010424 20011030 20011030 20011031 20011031 20011031 20011031 20011101 20011101 20011101 20011102 20010425 20011102 20011102 20011102 20011102 20011102 20011102 20011102 20011103 20011103 20011103 20010426 20011105 20011105 20011106 20011106 20011106 20011106 20011106 20011107 20011107 20010426 20011107 20011107 20011107 20011107 20011108 20011108 20011108 20011108 20011109 20010426 20011112 20011112 20011112 20011112 20011113 20011113 20011113 20011113 20011113 20011113 20010426 20011113 20011113 20011113 20011113 20011113 20011113 20011113 20011113 20011113 20011114 20010426 20011114 20011114 20011114 20011114 20011115 20011115 20011115 20011115 20011115 20010412 20010426 20011115 20011115 20011115 20011115 20011115 20011115 20011115 20011115 20011115 20011115 20010426 20011115 20011115 20011115 20011115 20011115 20011115 20011116 20011116 20011118 20011119 20010429 20011119 20011119 20011119 20011119 20011120 20011120 20011120 20011121 20011121 20011121 20010429 20011121 20011123 20011126 20011126 20011126 20011126 20011126 20011127 20010429 20011127 20011127 20011127 20011127 20011127 20011127 20010429 20010429 20010430 20010430 20010430 20010412 20010430 20010430 20010430 20010501 20010507 20010507 20010507 20010516 20010516 20010516 20010412 20010516 20010516 20010516 20010516 20010516 20010516 20010516 20010517 20010517 20010517 20010412 20010517 20010517 20010517 20010517 20010517 20010518 20010518 20010521 20010521 20010521 20011018 20011018 20010404 20010921 20010920 20011008 20011017 20011129 20011031 20011107 20011109 20011024 20001002 20011018 20011016 20011024 20010525 20011021 20011023 20010525 20010613 20011016'
p51
aS'20000629 20000616 20000211 20000210 20010130 20010213 20010215 20010215 20010216 20010228 20000509 20010508 20010606 20011009 20011003 20010823 20011102 20011031 20010705 20010507 20000921 20000920 20011120 20011204 20010502 20010717'
p52
aS'20000605 20010531 20020102 20010516 20001212 20001212 20011126 20011012 20011205 20011130 20010905 20010629 20010511 20010510 20010420 20010417 20010822 20010925 20010601 20010502 20010614 20010605 20010330 20010917 20010606 20011012 20010522 20001212 20010905'
p53
aS'20010613 20011127 20011019 20010723 20010530 20010517 20010511 20001018 20001030 20011005 20011017'
p54
aS'20001004 20000417 20000413 20000413 20000412 20000612 20000217 20001115 20001017 20010309 20001220 20000605 20001129 20000508 19991214 20001211 20001205 20001207 20001114'
p55
aS'20001213 20001128 20000317 20010107 20010328 20001130 20001218 20010105 20010419 20010621 20001130'
p56
aS'20000516 20011023 20011008 20011101 20020306 20020212 20020212 20020212 20020212 20020215 20020211 20011121 20011124 20011126 20020208 20020207 20020207 20020207 20020221 20020220 20020220 20011023 20011023 20011018 20011029 20011018 20011120 20011120 20011120 20011120 20011120 20011018 20011126 20011124 20011124 20011123 20011120 20011120 20011121 20011121 20011121 20011123 20011126 20011126 20011126 20011126 20011126 20011126 20011121 20011126 20011126 20011127 20011127 20011127 20011127 20011128 20011128 20011128 20011128 20011017 20011017 20011017 20011017 20010201 20010215 20010302 20010323 20010412 20010223 20010904 20010907 20010907 20010904 20010731 20010910 20010912 20010912 20010912 20010913 20010913 20010914 20010801 20010917 20010917 20010917 20010917 20010919 20010919 20010802 20010919 20010924 20010924 20010926 20010926 20010727 20010926 20010926 20010927 20010927 20010927 20010927 20010928 20011001 20011001 20011002 20011004 20011005 20011005 20011008 20011008 20011009 20011015 20011015 20011018 20011018 20011018 20011023 20011023 20011025 20010730 20010817 20011105 20011106 20010820 20011107 20011108 20011112 20011114 20011115 20011117 20011119 20011119 20011119 20011121 20011121 20011121 20011126 20011126 20010823 20011126 20011127 20011127 20011127 20011127 20011127 20011127 20011127 20010824 20011127 20011127 20011127 20011127 20010824 20011128 20011128 20011128 20010828 20010828 20010924 20010808 20010822 20010305 20010308 20010409 20010420 20010420 20010427 20010726 20010220 20011109 20011017 20011119 20011121 20011121 20011123 20011123 20011124 20011126 20011228 20011228 20001213 20001212 20001212 20001212 20001212 20001212 20001212 20001212 20001212 20001212 20001212 20001213 20001212 20001212 20001212 20001212 20001211 20001211 20001211 20001211 20001211 20001211 20001213 20001208 20001208 20001129 20010221 20010221 20010221 20010214 20010214 20001213 20001213 20001213 20001212 20001212 20001212 20000621 20000816 20000718 19791231 20000821 20000728 20000809 20000814 20000817 20000831 20000901 20001215 20000906 20000906 20000907 20000926 20000919 20001006 20000927 20001011 20001009 20001016 20001018 20001020 20001030 20001101 20001108 20001114 20001115 20001115 20001121 20001122 20001122 19791231 20000122 20001204 20000126 20000119 20001207 20000210 20000228 20000306 20000314 20000324 20000412 20000418 20000515 20000519 20001019 20000519 20010821 20011121 20011121 20011126 20011124 20011124 20011123 20011116 20011123 20011126 20011120 20000114 20011104 20010826 20010713 20010730 20011108 20010531 20010601 20010713 20010713 20000114 20011022 20011023 20011031 20011031 20011031 20011031 20011031 20011031 20011031 20011031 20011031 20011031 20011023 20011101 20011101 20011101 20011101 20011101 20011101 20011101 20011101 20011101 20011101 20011023 20011101 20011101 20011101 20011101 20011101 20011102 20011102 20011102 20011102 20011104 20011023 20011104 20011104 20011104 20011104 20011105 20011105 20011105 20011105 20011105 20011105 20011023 20011105 20011105 20011105 20011105 20011105 20011105 20011105 20011105 20011023 20011105 20011105 20011105 20011105 20011105 20011105 20011105 20011105 20011105 20011105 20011023 20011105 20011105 20011105 20011106 20011106 20011106 20011106 20011106 20011106 20011106 20011023 20011106 20011106 20011106 20011106 20011106 20011107 20011107 20011107 20011107 20011107 20011023 20011107 20011107 20011107 20011107 20011107 20011107 20011107 20011107 20011107 20011107 20011023 20011107 20011108 20011108 20011108 20011108 20011108 20011108 20011108 20011108 20011108 20011023 20011023 20011108 20011108 20011108 20011108 20011108 20011108 20011108 20011108 20011023 20011108 20011108 20011108 20011108 20011108 20011108 20011108 20011108 20011109 20011024 20011109 20011109 20011109 20011109 20011109 20011109 20011109 20011109 20011109 20011109 20011024 20011109 20011109 20011109 20011109 20011109 20011110 20011111 20011111 20011111 20011024 20011111 20011111 20011111 20011111 20011111 20011111 20011111 20011112 20011112 20011112 20011024 20011112 20011112 20011112 20011112 20011112 20011112 20011113 20011113 20011113 20011113 20011024 20011113 20011113 20011113 20011113 20011113 20011113 20011113 20011113 20011113 20011113 20011024 20011113 20011113 20011113 20011113 20011113 20011113 20011113 20011025 20011113 20011113 20011113 20011114 20011114 20011114 20011114 20011114 20011114 20011114 20011025 20011114 20011114 20011114 20011114 20011114 20011114 20011114 20011114 20011114 20011023 20011025 20011114 20011114 20011114 20011114 20011114 20011114 20011114 20011114 20011114 20011114 20011026 20011114 20011114 20011114 20011115 20011115 20011115 20011115 20011115 20011115 20011115 20011029 20011115 20011115 20011115 20011115 20011115 20011115 20011115 20011115 20011116 20011116 20011029 20011116 20011116 20011116 20011116 20011116 20011116 20011116 20011116 20011116 20011116 20011029 20011116 20011116 20011116 20011116 20011118 20011118 20011118 20011118 20011118 20011029 20011118 20011118 20011118 20011118 20011118 20011118 20011119 20011119 20011119 20011029 20011119 20011119 20011119 20011119 20011119 20011119 20011119 20011119 20011119 20011029 20011119 20011119 20011119 20011119 20011119 20011119 20011119 20011119 20011029 20011119 20011119 20011119 20011119 20011119 20011120 20011120 20011120 20011120 20011029 20011120 20011120 20011120 20011120 20011120 20011120 20011120 20011120 20011120 20011023 20011029 20011120 20011120 20011120 20011120 20011120 20011120 20011029 20011121 20011121 20011121 20011121 20011121 20011121 20011121 20011121 20011121 20011121 20011029 20011121 20011121 20011121 20011121 20011121 20011121 20011121 20011121 20011121 20011029 20011121 20011121 20011121 20011121 20011121 20011121 20011121 20011121 20011121 20011121 20011029 20011121 20011121 20011121 20011121 20011121 20011121 20011121 20011121 20011121 20011121 20011029 20011123 20011123 20011123 20011123 20011126 20011126 20011126 20011126 20011126 20011029 20011126 20011126 20011126 20011126 20011126 20011126 20011126 20011126 20011126 20011126 20011029 20011126 20011126 20011126 20011126 20011126 20011126 20011126 20011126 20011126 20011126 20011029 20011126 20011126 20011126 20011126 20011126 20011127 20011127 20011127 20011030 20011127 20011127 20011127 20011127 20011127 20011127 20011127 20011127 20011127 20011023 20011030 20011127 20011127 20011127 20011127 20011127 20011127 20011127 20011127 20011127 20011127 20011030 20011127 20011127 20011127 20011127 20011127 20011127 20011127 20011127 20011127 20011127 20011030 20011127 20011127 20011127 20011127 20011127 20011127 20011127 20011030 20011127 20011127 20011127 20011127 20011127 20011127 20011127 20011127 20011127 20011127 20011030 20011128 20011128 20011128 20011128 20011128 20011128 20011128 20011128 20011128 20011128 20011030 20011128 20011128 20011128 20011128 20011128 20011128 20011128 20011128 20011128 20011128 20011030 20011128 20011030 20011030 20011030 20011023 20011030 20011030 20011030 20011030 20011030 20011030 20011030 20011030 20011030 20011030 20011023 20011030 20011030 20011030 20011030 20011030 20011030 20011030 20011030 20011030 20011030 20011023 20011030 20011030 20011030 20011030 20011030 20011031 20011031 20011031 20011031 20011031 20011023 20011031 20011031 20011031 20011031 20011031 20011031 20011031 20011031 20011031 20011031 19991228 20000305 20000402 20000802 19991219 19991220 20000208 20000209 20000216 20011227 20011118 20011120 20011120 20011120 20011121 20011121 20011126 20011127 20011228 20011231 20000622 20011015 20011121 20011124 20011126 20020205 20020207 20011018 20011228 20011227 20011231 20011220 20011227 20011119 20011123 20011120 20011123 20011120 20011120 20011122 20011121 20011121 20011126 20011127 20011231 20010926 20011018 20011018 20011018 20011017 20010625 20011123 20011129 20011124 20011123 20011123 20011017 20011228 20011228 20011228 20011207 20011112 20011112 20010420 20011017 20000829 20001212'
p57
aS'20011009 20000807 20010406 20011016 20010514 20011016 20010514 20001207 20001121'
p58
aS'20020115 20011113 20020129 20011016 20011016 20010927 20020115 20011003 20020114 20011008 20011011 20011015 20011017 20020125 20011217 20011211 20011204 20011101 20011102 20011103 20011113 20011113 20011113 20020123 20011115 20011116 20011119 20020123 20010820 20020122 20020118 20011019 20011018 20011121 20011124 20011125 20011116 20011115 20011029 20011027 20011027 20011026 20011029 20011029 20011029 20011127 20011113 20011113 20010730 20011113 20010305 20011121 20011024 20011005 20011113 20010326 20010309 20011113 20011109 20011111 20011112 20011113 20011026 20011016 20011016 20011015 20011008 20010927 20011221 20011113 20010801 20010628 20010628 20011108 20011019 20011016 20011016'
p59
aS'20010926 20010904 20010904 20010919 20010919 20010919 20010919 20010409 20010607 20010607 20010919'
p60
aS'20010418 20010519 20010517 20010607 20010426 20010214 20010210 20010207 20010204 20010123 20001220 20001220 20001208 20001114 20001008 20000925 20000925 20000925 20000923 20000923 20000923 20010530'
p61
aS'20010816 20010817 20010107 20001010 20010810 20010810 20010403 20011031 20010621 20000915 20000706 20001103 20001203 20010725 20010808 20010614 20011015 20010919 20010918 20011031 20010725 20010719 20010718 20010531 20010607 20010603'
p62
aS'20001205 20001201 20000831 20000921 20001228 20000609 20001201'
p63
aS'20001109 20001030 20001019 20001019 20000815 20000629 20000629 20000421 20000710 20011029 20010810 20010822 20010823 20010706 20001212 20001208 20001113 20001113 20001113 20001113 20001113 20001113 20001113 20001113 20001113 20001208 20001113 20001113 20001112 20001112 20001112 20001112 20001112 20001110 20001110 20001208 20001110 20001110 20001110 20001110 20001109 20001109 20001109 20001109 20001108 20001208 20001108 20001108 20001107 20001107 20001107 20001107 20001107 20001106 20001103 20001208 20001103 20001103 20001103 20001103 20001103 20001102 20001102 20001102 20001102 20001102 20001101 20001031 20001017 20000927 20001208 20001102 20000710 20000710 20000710 20000627 20000517 20001101 20000510 20001101 20001031 20001031 20001031 20001030 20001030 20001030 20001030 20001028 20001028 20001028 20001028 20001028 20001028 20001028 20001028 20001028 20001027 20001024 20001024 20001023 20001023 20001023 20001023 20001207 20001023 20001020 20001020 20001020 20001020 20001019 20001019 20001019 20001019 20001019 20001206 20001019 20001019 20001018 20001018 20001018 20001017 20001017 20001017 20001016 20001212 20001206 20001016 20001016 20001016 20001016 20001013 20001013 20001013 20001012 20001012 20001012 20001206 20001012 20001011 20001011 20001011 20001011 20001010 20001010 20001010 20001206 20001010 20001010 20001010 20001009 20001009 20001009 20001009 20001009 20001009 20001206 20001009 20001006 20001006 20001006 20001006 20001006 20001006 20001006 20001206 20001006 20001006 20001006 20001006 20001006 20001006 20001005 20001004 20001004 20001003 20001206 20001003 20001003 20001003 20001003 20001003 20001002 20001002 20000929 20000929 20000929 20000928 20000928 20000928 20000927 20000927 20000927 20000927 20000927 20000927 20001206 20000927 20000927 20000927 20000927 20000926 20000926 20000926 20000926 20000925 20000925 20001205 20000925 20000925 20000925 20000925 20000925 20000922 20000922 20000922 20000922 20001205 20000920 20000920 20000920 20000920 20000920 20000915 20000915 20000915 20001212 20001205 20000915 20000915 20000915 20000913 20000913 20000912 20000912 20000908 20000906 20001205 20000906 20000906 20000906 20000906 20000906 20000906 20000906 20000906 20000906 20000906 20001205 20000906 20000831 20000831 20000831 20000831 20000831 20000831 20000831 20000831 20001205 20000830 20000828 20000828 20000828 20000828 20000828 20000825 20001205 20000825 20000825 20000825 20000825 20000825 20000825 20000825 20000825 20000825 20001204 20000821 20000821 20000821 20000821 20000818 20000818 20000818 20000818 20000818 20001204 20000817 20000817 20000817 20000816 20000816 20000816 20000816 20000815 20000815 20001130 20000815 20000814 20000814 20000814 20000814 20001130 20000810 20000810 20000809 20000809 20000808 20000808 20000808 20001212 20001130 20000808 20000807 20000804 20000804 20000804 20000803 20000803 20001130 20000803 20000803 20000802 20000802 20000801 20000801 20000801 20000801 20000801 20001130 20000801 20000801 20000801 20000801 20000731 20000728 20000728 20000728 20000728 20001130 20000726 20000725 20000725 20000725 20000725 20000725 20000724 20001130 20000724 20000724 20000724 20000720 20000720 20000720 20000720 20000719 20000719 20000719 20001130 20000719 20000719 20000719 20000718 20000718 20000718 20000718 20001130 20000718 20000717 20000717 20000714 20000714 20000713 20000713 20000713 20000713 20000713 20000713 20000713 20000713 20000713 20000713 20000713 20000713 20000713 20001129 20000712 20000711 20000711 20001129 20000711 20000711 20000711 20000711 20000711 20000711 20000711 20001212 20001129 20000711 20000710 20000710 20000710 20000710 20000710 20001129 20000710 20000707 20000707 20000707 20000707 20000706 20000705 20000705 20000705 20001128 20000705 20000705 20000705 20000630 20000630 20000630 20001128 20000629 20000629 20000629 20000629 20000629 20000629 20000629 20001128 20000629 20000628 20000628 20000628 20000627 20000627 20000627 20000627 20001128 20000627 20000627 20000626 20000626 20000626 20000623 20000623 20000622 20001128 20000622 20000621 20000621 20000620 20000620 20001128 20000619 20000619 20000619 20000616 20000616 20000616 20000615 20000615 20001128 20000615 20000615 20000615 20000615 20000615 20000615 20000613 20000612 20000612 20000612 20001128 20000612 20000609 20000609 20000609 20000609 20000609 20000609 20000609 20000609 20001212 20001128 20000609 20000609 20000608 20000608 20000608 20001128 20000606 20000606 20000606 20000604 20000602 20000602 20000602 20000602 20000602 20001128 20000601 20000601 20000526 20000526 20000526 20000526 20000526 20000526 20000526 20001128 20000525 20000524 20000524 20000524 20000524 20000523 20001128 20000519 20000519 20000519 20000519 20000519 20000517 20000517 20000517 20001127 20000517 20000517 20000517 20000517 20000517 20000517 20000517 20000517 20000517 20000517 20001122 20000516 20000516 20000515 20000515 20000515 20000515 20000515 20000515 20000515 20000515 20001122 20000515 20000515 20000512 20000512 20000512 20000511 20000511 20000511 20000511 20000511 20001122 20000511 20000511 20000511 20000510 20000510 20010221 20010221 20010221 20010220 20001122 20010220 20010220 20010220 20010220 20010219 20010219 20010219 20010219 20010219 20001210 20001122 20010219 20010215 20010215 20010215 20010215 20010215 20010215 20010215 20010215 20010215 20001122 20010215 20010214 20010214 20010214 20010214 20010209 20010209 20010209 20010209 20010209 20001122 20010209 20010209 20010209 20010209 20010209 20010209 20010209 20010209 20010209 20010209 20001122 20010209 20010209 20010209 20010209 20010209 20010209 20010209 20010209 20010209 20010209 20001121 20010209 20010209 20010207 20010207 20010207 20010207 20010207 20010207 20010206 20010206 20001121 20010206 20010206 20010206 20010206 20010206 20010206 20010206 20010205 20010202 20001121 20010202 20010202 20010201 20010201 20010201 20010131 20010131 20001121 20010131 20010131 20010131 20010131 20010131 20010131 20010130 20010129 20010129 20001121 20010129 20010129 20010129 20010126 20010126 20010122 20010122 20010120 20010120 20010120 20001121 20010120 20010120 20010120 20010120 20010119 20010119 20010119 20010119 20010118 20010118 20001208 20001121 20010118 20010116 20010116 20010116 20010116 20010112 20010111 20001121 20010110 20010110 20010110 20010105 20010105 20010105 20010105 20010105 20010103 20010103 20001120 20010103 20010103 20010103 20010103 20010102 20010102 20010102 20010102 20010102 20010101 20001120 20010101 20010101 20010101 20001229 20001228 20001228 20001228 20001228 20001228 20001120 20001222 20001222 20001222 20001222 20001221 20001220 20001220 20001120 20001220 20001220 20001220 20001220 20001220 20001220 20001219 20001219 20001219 20001219 20001120 20001219 20001219 20001219 20001218 20001218 20001218 20001218 20001217 20001217 20001217 20001120 20001217 20001217 20001215 20001214 20001214 20001214 20001120 20001120 20001208 20001115 20001115 20001115 20001115 20001114 20001113 20001113 19791231 20000629 20010524 20010815 20010511 20010515 20000303 20001109 20001020 20001109 20000509 20010206 20010316 20010312 20010215 20010215 20010328 20010222 20010207 20010324 20010524 20010405 20000615 20001016 20001112 20001122 20001128 20010606 20000303 20010110 20010629 20001206 20010327 20010516 20000606 20001206 20010712 20010614 20010611 20010524 20010430 20010430 20010430 20010516 20010517 20001206 20011012 20010925 20010912 20011022 20010712 20010516 20001130 20001206 20001130 20001129 20001122'
p64
aS'20020124 20010712 20011128 20000730 20000830 20000907 20000908 20001013 20001019 20011128 20010419'
p65
aS'20000430 20000707 20000710 20000718 20000720 20001011'
p66
aS'20011226 20011227 20000111 20000719 20000724'
p67
aS'20011023 20011121 20011226 20011226 20011120 20011120 20011120 20011121 20011123 20011121 20011230 20011127 20010511 20010319 20010822 20011213 20010514 20010515 20011008 20011123'
p68
aS'20000118 20020122 20011113 20011118 20010315 20010329 20010403 20010411 20010411 20010709 20010724 20001221 20001227 20001228 20010104 20010104 20010104 20010104 20010107 20010108 20010108 20010111 20010113 20010201 20010201 20010201 20010214 20010304 20010307 20010308 20010310 20010313 20010314 20010314 20010314 20010920 20010913 20010724 20010913 20010920 20011219 20011118 20010531 20000926 20010305 20010404 20010404 20010415 20010430 20010509 20010204 20010920 20011002 20011002 20011218 20011031 20011114 20011118 20010621 20011118 20001212 20011220 20011127 20011118 20001212 20000502 20011204 20011114 20020301 20020315 20010327 20010328 20010831 20011030 20011221 20011221 20011114 20000222 20010604 20010907 20011118'
p69
aS'20020102 20020111 20020107 20020102 20020102 20011217 20011211 20011217 20011210 20011209 20011209 20011111 20011214 20011210 20011120 20011120 20011219 20011207 20011210 20011210 20011214 20011217 20011217 20011226 20011231 20011231 20011117 20011118 20011227 20011118 20011117 20011120 20011120 20020124 20020124 20020117 20011117 20011117 20020117 20011210 20020109 20020107 20011112 20011111 20011120 20011120 20011118 20011117 20001113 20011024 20011210 20011210 20011120 20011120 20011120 20011119 20011120 20011111 20011117 20011117 20011118 20011120 20011120 20011120 20011126 20001120 20001112 20001110'
p70
aS'20001211 20001211 20001031 20001128 20001204 20001128 20000309'
p71
aS'20010319 20010320 20010320 20010529 20001220 20001018 20010321 20010315 20001228 20001228 20010321 20010315 20010123'
p72
aS'20010112 20011026 20011025 20011025 20011024 20011028 20010720 20010719 20001207 20001207 20001208 20001211 20001213 20001110 20001128 20001130 20001204 20000328 20001205 20011024 20011023 20011023 20011021 20011020 20011019 20011018 20010604 20010605 20010606 20010606 20010607 20010607 20010607 20011027 20010607 20010607 20010607 20010510 20011022 20011021 20010511 20010514 20010515 20010516 20011101 20011102 20010517 20010521 20010524 20010529 20010529 20010530 20010530 20010530 20010531 20010604 20010606 20010530 20001122 20010305 20010321 20010321 20010321 20010924 20011008 20011204 20011107 20011107 20011126 20011117 20011117 20011121 20011126 20010112 20010531 20011105 20011105 20010614 20010618 20010624 20010618 20010614 20010529 20010524 20010521 20010518 20001130 20010607'
p73
aS'20011227 20011025 20011121 20011231 20011227 20001030 20011123 20011123 20011123 20011121 20011121 20011120 20011120 20011128 20011119 20011207 20010815 20010813 20010605 20010131 20010416 20010815 20011220 20011108 20011119 20011123 20011121 20011120 20011120 20011121 20011120 20011120 20011123 20011120 20011123 20011121 20011123 20011122 20011123 20011120 20010911 20010920 20010920 20010920 20010924 20010925 20011231 20011231 20010925 20011231 20011231 20011231 20011101 20011127 20011128 20011128 20011129 20010925 20011129 20011203 20011203 20011203 20011204 20011204 20011204 20011204 20011205 20011205 20010925 20011206 20011206 20011206 20011206 20011207 20011207 20011207 20011207 20011207 20011210 20010925 20011212 20011212 20011212 20011212 20011212 20011212 20011217 20011218 20011218 20010918 20010925 20011219 20011219 20011220 20011220 20011220 20010925 20010925 20011026 20011030 20011030 20011030 20011030 20010925 20011030 20011030 20011031 20011031 20011101 20011101 20011101 20011101 20011101 20011101 20010925 20011101 20011101 20011101 20011101 20011101 20011101 20011102 20010926 20011102 20011105 20011105 20011106 20011106 20011107 20011107 20011108 20010927 20011108 20011109 20011109 20011112 20011113 20011113 20011113 20011114 20011114 20011114 20010927 20011114 20011114 20011115 20011116 20011116 20011116 20011116 20011116 20011119 20011119 20010928 20011119 20011119 20011119 20011126 20010928 20010918 20010928 20011001 20011002 20011002 20011003 20011004 20011005 20011005 20011009 20010918 20011009 20011009 20011009 20011009 20011009 20011010 20011010 20011010 20011011 20011012 20010918 20011016 20011016 20011016 20011017 20011017 20011018 20011018 20011018 20011018 20011018 20010918 20011022 20011022 20011022 20011022 20011023 20011024 20011025 20011025 20011025 20011025 20010919 20011026 20011026 20011026 20011026 20011029 20011029 20011029 20010919 20010920 20010719'
p74
aS'20011231 20011227 20011024 20010927 20011227 20011231 20010926 20001023 20001010 20000612 20010122 20010122 20010122 20010126 20001207 20001212 20020104 20020104 20020107 20020104 20020108 20020104 20020103 20020102 20020102 20011231 20011231 20011231 20011228 20011119 20011119 20020111 20010809 20010927 20020108 20020108 20020104 20020104 20020102 20020102 20020102 20011231 20011231 20011231 20011231 20011228 20011213 20011210 20011127 20020118 20010912 20020206 20020205 20001213 20011025 20010829 20020205 20020206 20011227 20011231 20010321 20010322 20010508 20010712 20011231 20011008 20011010 20010319 20000609 20000629 20000630 20000706 20000712 20000712 20000712 20000727 20000727 20000801 20000801 20001017 20001018 20001018 20001114 20001115 20000211 20000111 20001205 20000727 20000327 20020124 20020124 20020117 20000804 20011025 20011116 20011204 20011024 20010914 20020102 20011228 20011226 20011221 20011119 20011119 20011114 20011104 20011104 20011027 20010828 20010828 20010806 20010730 20010427 20011008 20010930 20010828 20010828 20010806 20010730 20010930 20010504 20010712 20011029 20020102 20020204 20011227 20020102 20020206 20020205 20020206 20020206 20020201 20010926 20010926 20010926 20010926 20010926 20010926 20010926 20010926 20010926 20020201 20010926 20010926 20010926 20010926 20010926 20010926 20010926 20010926 20010926 20010926 20020201 20010926 20010926 20010926 20010925 20010925 20010925 20010925 20010925 20010925 20010925 20020201 20010925 20010925 20010925 20010925 20010925 20010925 20010925 20010925 20010925 20010925 20020131 20010925 20010925 20010925 20010925 20010712 20020131 20020129 20020129 20020129 20020129 20020206 20020129 20020129 20020129 20020129 20020129 20020129 20020129 20020128 20020128 20020128 20020206 20020126 20020126 20020126 20020126 20020126 20020125 20020125 20020125 20020125 20020125 20020206 20020125 20020125 20020125 20020124 20020124 20020124 20020124 20020124 20020124 20020124 20020206 20020124 20020124 20020124 20020124 20020124 20011001 20020124 20020124 20020124 20020124 20020124 20020206 20020124 20020124 20020124 20011123 20011125 20011125 20011125 20011125 20011126 20011126 20011126 20011126 20020124 20011126 20011126 20011126 20011126 20011126 20011126 20011126 20011126 20011126 20011126 20020124 20011126 20011127 20011127 20011127 20011127 20011127 20011127 20011127 20011127 20011127 20020124 20011128 20011129 20011129 20011129 20011130 20011130 20011130 20011130 20020124 20011130 20011201 20011201 20011202 20011203 20011203 20011203 20011203 20011203 20011204 20020123 20011204 20011204 20011204 20011204 20011204 20011204 20011204 20011204 20020123 20011204 20011205 20011205 20011205 20011205 20011205 20011205 20011205 20011205 20011205 20020206 20020123 20011205 20011206 20011206 20011206 20011206 20011206 20011206 20011206 20011206 20011206 20020123 20011206 20011206 20011207 20011207 20011207 20011207 20011207 20020123 20011207 20011207 20011207 20011208 20011208 20011208 20011208 20011209 20011209 20011209 20011209 20011209 20011209 20011209 20011209 20011209 20011210 20011210 20011210 20011210 20020123 20011211 20011211 20011211 20011211 20011211 20011211 20011212 20011212 20020123 20011212 20011212 20011212 20011212 20011213 20011213 20011213 20011214 20011214 20020123 20011215 20011215 20020123 20011221 20020123 20011226 20020123 20020206 20020122 20020122 20020122 20020122 20020122 20020122 20020122 20020122 20020121 20020206 20020121 20020121 20020121 20020121 20020121 20020121 20020121 20020121 20020121 20020121 20020206 20020121 20020121 20020121 20020120 20020120 20020119 20020119 20020119 20020206 20020206 20020119 20020118 20020118 20020118 20020118 20020118 20020118 20020118 20020118 20020118 20020205 20020118 20020118 20020118 20020117 20020117 20020117 20020117 20020117 20020116 20020116 20020205 20020116 20020115 20020115 20020115 20020115 20020115 20020115 20020115 20020115 20020205 20020114 20020114 20020114 20020114 20020114 20020114 20020114 20020114 20020113 20020113 20020205 20020113 20020112 20020112 20020112 20020112 20020112 20020112 20020112 20020112 20020112 20020205 20020112 20020112 20020112 20020112 20020112 20020111 20020111 20020111 20020111 20020111 20020205 20020111 20020111 20020111 20020111 20020111 20020111 20020111 20020110 20020110 20020205 20020110 20020110 20020110 20020110 20020110 20020110 20020110 20020110 20020110 20020110 20020205 20020110 20020110 20020110 20020110 20020110 20020110 20020109 20020109 20020109 20020109 20020205 20020109 20020109 20020109 20020109 20020109 20020109 20020109 20020109 20020206 20020205 20020109 20020109 20020109 20020109 20020109 20020109 20020109 20020109 20020109 20020109 20020205 20020109 20020109 20020109 20020109 20020109 20020109 20020109 20020109 20020205 20020109 20020109 20020108 20020108 20020108 20020108 20020108 20020108 20020108 20020108 20020205 20020108 20020108 20020108 20020108 20020108 20020108 20020108 20020108 20020108 20020205 20020107 20020107 20020107 20020107 20020107 20020107 20020107 20020107 20020107 20020205 20020107 20020107 20020107 20020107 20020107 20020107 20020107 20020107 20020107 20020205 20020107 20020107 20020107 20020107 20020107 20020107 20020107 20020107 20020107 20020105 20020105 20020105 20020105 20020105 20020105 20020105 20020105 20020105 20020205 20020105 20020105 20020105 20020105 20020105 20020105 20020105 20020105 20020105 20020105 20020204 20020105 20020104 20020104 20020104 20020104 20020104 20020104 20020104 20020104 20020104 20020206 20020204 20020104 20020104 20020104 20020104 20020104 20020104 20020104 20020104 20020104 20020104 20020204 20020104 20020103 20020103 20020103 20020103 20020103 20020103 20020103 20020103 20020103 20020204 20020103 20020103 20020103 20020103 20020103 20020103 20020103 20020103 20020103 20020103 20020204 20020103 20020103 20020103 20020103 20020103 20020103 20020103 20020103 20020103 20020103 20020204 20020103 20020103 20020103 20020102 20020102 20020102 20020102 20020102 20020102 20020102 20020204 20020102 20020102 20020102 20020102 20020102 20020102 20020102 20020102 20020102 20020204 20020102 20020102 20020102 20020102 20020102 20020102 20020102 20020102 20020102 20020204 20020102 20020102 20020102 20020102 20020102 20020102 20020102 20020102 20020102 20020102 20020204 20020102 20020102 20020102 20020102 20020102 20020102 20020102 20020102 20020102 20020102 20020204 20020102 20020102 20011231 20011231 20011231 20011231 20011231 20011231 20011231 20011231 20020206 20020204 20011231 20011231 20011231 20011231 20011231 20011231 20011231 20011231 20011231 20011228 20020204 20011228 20011228 20011228 20011227 20011227 20011227 20011227 20011227 20020204 20011227 20011227 20011226 20011226 20011226 20011226 20011226 20011226 20011226 20011226 20020204 20011226 20011223 20011222 20011221 20011221 20011221 20011221 20011221 20011221 20011221 20020204 20011220 20011219 20011219 20011219 20011219 20011219 20011219 20011219 20011219 20011219 20020204 20011217 20011217 20011217 20011217 20011217 20011217 20011216 20011213 20011210 20020204 20011130 20011029 20011029 20011029 20011029 20011029 20011029 20011029 20011029 20020204 20011029 20011029 20011029 20011029 20011028 20011028 20011028 20011028 20020204 20011027 20011027 20011027 20011027 20011027 20011026 20011026 20011026 20011026 20011026 20020204 20011026 20011026 20011026 20011026 20011026 20011026 20011026 20011026 20011026 20011026 20020206 20020204 20011026 20011026 20011025 20011025 20011025 20011025 20011025 20011025 20011025 20020204 20011025 20011025 20011025 20011025 20011025 20011025 20011025 20011025 20011025 20020204 20011025 20011025 20011025 20011025 20011025 20011025 20011025 20011024 20011024 20011024 20020204 20011024 20011024 20011024 20011024 20011024 20011024 20011024 20011024 20011024 20011024 20020204 20011024 20011024 20011024 20011024 20011024 20011024 20011024 20011024 20011024 20011024 20020204 20011023 20011023 20011023 20011023 20011023 20011023 20011023 20011023 20011023 20020203 20011023 20011022 20011022 20011022 20011022 20011022 20011022 20011022 20011022 20020203 20011022 20011022 20011022 20011022 20011022 20011022 20011022 20011022 20011022 20020203 20011022 20011022 20011022 20011022 20011022 20011021 20011019 20011019 20011019 20011019 20020203 20011019 20011019 20011019 20011019 20011019 20011019 20011018 20011018 20011018 20011018 20020206 20020203 20011018 20011018 20011018 20011018 20011018 20011018 20011018 20011018 20011018 20011018 20020203 20011018 20011018 20011018 20011017 20011017 20011017 20011017 20011017 20011017 20011017 20020203 20011017 20011017 20011017 20011017 20011017 20011017 20011017 20011017 20011017 20011017 20020203 20011017 20011017 20011017 20011017 20011017 20011017 20011017 20011017 20011017 20011017 20020203 20011017 20011016 20011016 20011016 20011016 20011016 20011016 20011016 20011016 20011016 20020203 20011016 20011016 20011016 20011016 20011016 20011016 20011016 20011016 20011016 20020203 20011016 20011016 20011016 20011016 20011016 20011016 20011015 20011015 20011015 20011015 20020202 20011015 20011015 20011015 20011015 20011015 20011015 20011015 20011015 20011015 20020202 20011015 20011015 20011015 20011015 20011015 20011015 20011015 20011015 20011015 20011015 20020202 20011015 20011015 20011015 20011015 20011015 20011015 20011015 20011015 20011014 20011014 20020206 20020202 20011014 20011013 20011013 20011013 20011012 20011012 20011012 20011012 20011012 20011012 20020202 20011012 20011012 20011012 20011012 20011012 20011011 20011011 20011010 20011010 20020202 20011010 20011010 20011010 20011010 20011010 20011010 20011010 20011009 20011009 20011009 20020202 20011009 20011009 20011009 20011009 20011009 20011009 20011009 20011009 20011009 20020201 20011009 20011009 20011009 20011009 20011009 20011009 20011009 20011009 20011009 20011009 20020201 20011009 20011009 20011009 20011009 20011009 20011008 20011008 20011008 20011008 20020201 20011008 20011008 20011008 20011008 20011008 20011008 20011008 20011008 20011008 20011008 20020201 20011008 20011008 20011007 20011007 20011007 20011007 20011007 20011007 20011007 20011007 20020201 20011007 20011007 20011005 20011005 20011005 20011005 20011005 20011005 20011005 20020201 20011005 20011005 20011005 20011005 20011005 20011005 20011005 20011005 20011004 20011004 20020206 20020201 20011004 20011004 20011004 20011004 20011004 20011004 20011004 20011004 20011004 20011004 20020201 20011004 20011004 20011004 20011004 20011003 20011003 20011003 20011003 20011003 20011003 20020201 20011003 20011003 20011003 20011003 20011002 20011002 20011002 20011002 20020201 20011002 20011002 20011002 20011002 20011002 20011002 20011002 20011001 20011001 20011001 20020201 20011001 20011001 20011001 20011001 20011001 20011001 20011001 20011001 20011001 20011001 20020201 20011001 20011001 20011001 20011001 20011001 20011001 20011001 20011001 20011001 20011001 20020201 20011001 20011001 20011001 20010930 20010930 20010930 20010930 20010928 20010928 20020201 20010928 20010928 20010928 20010927 20010927 20010927 20010927 20010927 20010927 20010927 20020201 20010927 20010927 20010927 20010927 20010927 20010927 20010927 20010927 20010927 20010927 20020201 20010927 20010927 20010926 20010926 20010926 20010926 20010926 20010926 20010926 20010926 20011023 20011115 20011115 20011115 20011112 20011112 20011118 20011116 20011114 20011120 20011119 20011120 20011120 20011120 20011112 20011107 20011126 20011126 20011127 20011127 20011127 20011029 20011029 20011029 20011027 20011027 20011025 20011025 20011024 20011024 20011024 20011024 20011114 20011125 20020122 20020202 20020201 20020131 20020128 20020203 20020203 20020108 20020206 20020108 20020102 20011231 20011227 20010430 20020205 20010927 20020201 20010927 20000804 20011113 20010430 20020108 20020102 20011231 20011227 20020201 20010927 20010926 20010430 20011125 20010712 20020206 20011227 20011231 20020121 20020121 20020118 20020118 20020205 20020112 20020112 20020112 20020112 20020108 20011015 20020203 20020202 20020201 20020201 20020201 20020102 20010904 20010507 20020102 20020102 20020102 20011127 20011115 20000308 20000224 20010508 20011119 20011025 20011025 20011023 20011016 20010913 20010625 20011126 20010625 20020118 20020118 20020112 20020108 20020103 20020103 20020102 20011231 20011228 20011227 20011213 20020201 20010430 20020206 20020121 20020121 20020121 20020205 20020128 20011227 20011231 20011126 20010319 20010319 20010319 20010327 20010408 20010409 20010409 20011108 20010605 20010417 20010417 20010409 20010409 20010408 20010327 20010319 20010319 20010319 20011221 20011213 20020205 20020206 20011107 20020206 20020205 20000117 20000117 20000118 20000119 20000123 20000123 20000123 20000125 20000201 20000211 20000211 20000216 20000218 20000222 20000222 20000224 20000225 20000228 20000228 20000228 20000308 20000323 20000327 20000420 20000420 20000428 20000515 20000516 20000606 20000627 20000627 20000705 20000705 20000710 20000713 20000720 20000725 20000801 20000804 20000817 20000822 20000828 19990524 19990525 20000915 20001002 20001009 19990609 19990609 19990611 19990705 19990707 19990708 19990719 19990720 19990720 19990722 19990723 19990723 19990727 19990728 19990810 19990813 19990824 19990909 19991006 19991011 20010107 19991022 20010405 19991115 19991129 20010625 20011029 20011127 20011029 20011105 20011025 20011025 20011024 20010927 20011012 20011227 20011231 20011127 20001205 20001206 20011027 20011105 20011025 20011114 20011115 20011023 20011016 20010522 20001212 20001201 20001128 20001128 20001128 20001121 20001113 20001113 20020108 20011231 20020206 20011231 20020201 20010531 20010531 20010530 20010522 20010522 20010329 20011024 20010314 20010314 20010314 20010314 20010314 20010314 20010314 20010209 20010606 20011231 20010605 20020205 20020201 20020206'
p75
aS'20010116 20000118 20010507 20010507 20010430 20010112 20010112 20010112 20010112 20010112 20010112 20010112 20010112 20010112 20010112 20010430 20010112 20010111 20010111 20010111 20010111 20010111 20010111 20010111 20010111 20010430 20010111 20010111 20010111 20010111 20010110 20010110 20010110 20010110 20010110 20010110 20010430 20010110 20010110 20010110 20010109 20010109 20010109 20010109 20010109 20010109 20010109 20010430 20010109 20010109 20010109 20010109 20010109 20010108 20010108 20010108 20010108 20010108 20010430 20010108 20010108 20010108 20010108 20010108 20010108 20010108 20010108 20010108 20010108 20010430 20010108 20010105 20010105 20010105 20010105 20010105 20010105 20010105 20010105 20010105 20010427 20010105 20010105 20010105 20010105 20010104 20010104 20010104 20010104 20010104 20010104 20010427 20010104 20010104 20010104 20010104 20010104 20010104 20010104 20010104 20010103 20010103 20010427 20010103 20010103 20010103 20010103 20010103 20010103 20010103 20010103 20010103 20010103 20010507 20010427 20010103 20010103 20010103 20010103 20010103 20010103 20010103 20010102 20010102 20010102 20010427 20010102 20010102 20010102 20010102 20010102 20010102 20010102 20010102 20010102 20010101 20010427 20010101 20001229 20001229 20001229 20001229 20001229 20001229 20001222 20001222 20001222 20010427 20001222 20001222 20001222 20001222 20001222 20001222 20001222 20001222 20001222 20001222 20010427 20001222 20001222 20001222 20001222 20001222 20001222 20001222 20001222 20001222 20001222 20010427 20001222 20001222 20001222 20001222 20001222 20001222 20001222 20001222 20001222 20001222 20010427 20001222 20001222 20001222 20001222 20001222 20001222 20001222 20001221 20001221 20010427 20001221 20001221 20001221 20001221 20001221 20001221 20001221 20001219 20001219 20010427 20001219 20001219 20001219 20001219 20001219 20001219 20001219 20001219 20001219 20001219 20010427 20001219 20001219 20001219 20001219 20001219 20001219 20001219 20001218 20001218 20001218 20010507 20010427 20001218 20001218 20001218 20001218 20001218 20001218 20001218 20001218 20001218 20001218 20010427 20001218 20001218 20001215 20001215 20001215 20001215 20001215 20001215 20001215 20001215 20010427 20001215 20001215 20001215 20001215 20001215 20001215 20001215 20001215 20001215 20001215 20010427 20001215 20001214 20001214 20001214 20001214 20001214 20001214 20001214 20001214 20001214 20010427 20001214 20001214 20001214 20001214 20001214 20001214 20001214 20001214 20001214 20001214 20010427 20001214 20001214 20001214 20001214 20001212 20001212 20001212 20001212 20001212 20001212 20010427 20001212 20001212 20001212 20001212 20001212 20001212 20001212 20001212 20001212 20001212 20010427 20001212 20001212 20001212 20001212 20001212 20001212 20001212 20001212 20001211 20001211 20010427 20001211 20001211 20001211 20001211 20001208 20001208 20001208 20001208 20001208 20001208 20010425 20001208 20001208 20001208 20001208 20001208 20001207 20001207 20001207 20001207 20001207 20010507 20010425 20001207 20001207 20001207 20001207 20001207 20001207 20001207 20001207 20001205 20001205 20010425 20001205 20001205 20001205 20001205 20001205 20001205 20001205 20001204 20001204 20001204 20010425 20001204 20001204 20001204 20001204 20001204 20001202 20001202 20001201 20001201 20001201 20010425 20001201 20001201 20001201 20001201 20001201 20001201 20001201 20001201 20001201 20001201 20010425 20001201 20001201 20001201 20001201 20001201 20001201 20001201 20001201 20001201 20001201 20010425 20001201 20001201 20001201 20001130 20001130 20001130 20001130 20001130 20001130 20001130 20010425 20001130 20001130 20001129 20001129 20001129 20001129 20001129 20001129 20001129 20001129 20010425 20001129 20001129 20001129 20001129 20001129 20001129 20001129 20001129 20001129 20001129 20010425 20001129 20001128 20001128 20001128 20001128 20001128 20001128 20001128 20001128 20001127 20010425 20001127 20001127 20001127 20001127 20001127 20001127 20001127 20001127 20001127 20001127 20010507 20010425 20001127 20001127 20001127 20001127 20001127 20001127 20001127 20001127 20001127 20001127 20010425 20001127 20001127 20001127 20001122 20001122 20001122 20001122 20001122 20001122 20001122 20010425 20001122 20001122 20001122 20001122 20001121 20001121 20001121 20001121 20001121 20001121 20010424 20001121 20001121 20001121 20001121 20001121 20001121 20001121 20001121 20001121 20001121 20010424 20001121 20001121 20001121 20001121 20001121 20001121 20001121 20001121 20001121 20001121 20010424 20001121 20001121 20001121 20001121 20001121 20001120 20001120 20001120 20001120 20001120 20010424 20001120 20001120 20001120 20001120 20001120 20001120 20001120 20001120 20001120 20001117 20010424 20001117 20001117 20001117 20001117 20001117 20001117 20001117 20001117 20001117 20001117 20010424 20001117 20001117 20001117 20001117 20001115 20001115 20001115 20001114 20001114 20001114 20010424 20001114 20001114 20001114 20001114 20001114 20001114 20001114 20001114 20001114 20001114 20010507 20010424 20001114 20001114 20001114 20001113 20001113 20001113 20001113 20001113 20001113 20001113 20010424 20001113 20001113 20001113 20001113 20001113 20001113 20001110 20001110 20001110 20001110 20010424 20001110 20001110 20001110 20001110 20001110 20001110 20001110 20001110 20001110 20001110 20010424 20001110 20001110 20001110 20001110 20001110 20001110 20001109 20001109 20001109 20001109 20010424 20001109 20001109 20001109 20001109 20001109 20001109 20001109 20001109 20001108 20001108 20010424 20001108 20001108 20001108 20001108 20001108 20001108 20001108 20001108 20001108 20001108 20010424 20001108 20001108 20001107 20001107 20001107 20001107 20001107 20001107 20001107 20001107 20010424 20001107 20001106 20001106 20001106 20001106 20001106 20001106 20001106 20001106 20001106 20010424 20001106 20001106 20001106 20001106 20001106 20001106 20001106 20001106 20001106 20001106 20010424 20001106 20001106 20001106 20001106 20001106 20001106 20001106 20001106 20001106 20001106 20010507 20010424 20001106 20001106 20001106 20001106 20001106 20001106 20001106 20001106 20001106 20001106 20010424 20001106 20001102 20001102 20001102 20001102 20001102 20001102 20001102 20001102 20001102 20010424 20001102 20001102 20001102 20001102 20001102 20001102 20001102 20001102 20001102 20001102 20010424 20001101 20001101 20001101 20001101 20001101 20001101 20001101 20001101 20001101 20001101 20010424 20001101 20001030 20001030 20001030 20001030 20001030 20001030 20001030 20001030 20001030 20010423 20001030 20001030 20001030 20001030 20001030 20001030 20001030 20001030 20001030 20001030 20010423 20001030 20001029 20001029 20001027 20001027 20001027 20001027 20001027 20001027 20001027 20010423 20001027 20001027 20001027 20001027 20001027 20001027 20001027 20001027 20001027 20001027 20010423 20001027 20001027 20001027 20001026 20001026 20001026 20001026 20001026 20001026 20001026 20010423 20001026 20001025 20001025 20001025 20001025 20001025 20001025 20001025 20001025 20001025 20010507 20010423 20001025 20001025 20001025 20001025 20001024 20001024 20001024 20001024 20001024 20001024 20010423 20001024 20001024 20001024 20001024 20001024 20001024 20001024 20001024 20001024 20001024 20010423 20001024 20001024 20001024 20001024 20001024 20001024 20001024 20001018 20001018 20001018 20010423 20001018 20001018 20001018 20001018 20001018 20001018 20001018 20001018 20001018 20001018 20010423 20001018 20001018 20001018 20001018 20001018 20001018 20001018 20001018 20001017 20001017 20010423 20001017 20001017 20001017 20001017 20001017 20001017 20001017 20001017 20001017 20001017 20010423 20001017 20001017 20001017 20001013 20001013 20001013 20001013 20001013 20001013 20010423 20001013 20001013 20001013 20001013 20001013 20001013 20001013 20001013 20001013 20001013 20010419 20001013 20001013 20001013 20001013 20001013 20001013 20001013 20001013 20001013 20001013 20010419 20001013 20001012 20001012 20001012 20001012 20001012 20001012 20001012 20001012 20001012 20010504 20010419 20001012 20001012 20001012 20001012 20001012 20001012 20001012 20001012 20001012 20001012 20010419 20001012 20001012 20001012 20001012 20001012 20001012 20001012 20001012 20001012 20001012 20010419 20001012 20001012 20001012 20001012 20001012 20001010 20001010 20001010 20001010 20010419 20001010 20001010 20001010 20001010 20001010 20001010 20001010 20001010 20001010 20001010 20010419 20001010 20001010 20001010 20001010 20001010 20001010 20001010 20001010 20001010 20001010 20010419 20001009 20001009 20001009 20001009 20001009 20001009 20001009 20001009 20001009 20001009 20010419 20001002 20001002 20001001 20001001 20001001 20001001 20000929 20000929 20000929 20000929 20010419 20000929 20000929 20000929 20000929 20000929 20000929 20000929 20000929 20000929 20000929 20010419 20000929 20000929 20000929 20000929 20000929 20000929 20000929 20000929 20000929 20000929 20010419 20000929 20000929 20000929 20000929 20000929 20000929 20000929 20000929 20000929 20000929 20010504 20010419 20000929 20000929 20000929 20000929 20000929 20000929 20000928 20000928 20000928 20000928 20010419 20000928 20000928 20000928 20000928 20000928 20000928 20000927 20000927 20000927 20000927 20010419 20000927 20000927 20000927 20000927 20000927 20000927 20000927 20000927 20000927 20000927 20010419 20000927 20000927 20000927 20000927 20000927 20000927 20000920 20000920 20000920 20000920 20010419 20000920 20000920 20000920 20000920 20000920 20000920 20000920 20000920 20000920 20000920 20010418 20000919 20000919 20000919 20000919 20000919 20000919 20000919 20000919 20000919 20000919 20010418 20000919 20000919 20000919 20000919 20000918 20000918 20000918 20000918 20000918 20000918 20010418 20000918 20000918 20000918 20000918 20000918 20000918 20000918 20000918 20000918 20000915 20010416 20000915 20000915 20000915 20000915 20000915 20000915 20000915 20000915 20000915 20000915 20010416 20000915 20000915 20000915 20000915 20000915 20000915 20000915 20000915 20000915 20000914 20010507 20010504 20010416 20000914 20000908 20000908 20000908 20000908 20000908 20000908 20000908 20000908 20000908 20010416 20000908 20000908 20000908 20000908 20000908 20000908 20000908 20000908 20000908 20000908 20010416 20000908 20000908 20000908 20000908 20000908 20000908 20000908 20000908 20000908 20000908 20010416 20000908 20000906 20000906 20000906 20000906 20000906 20000906 20000906 20000906 20000906 20010416 20000906 20000906 20000906 20000906 20000906 20000906 20000906 20000906 20000906 20000906 20010416 20000901 20000901 20000901 20000901 20000831 20000831 20000831 20000830 20000830 20010416 20000830 20000830 20000830 20000830 20000830 20000830 20000830 20000830 20000830 20000829 20010416 20000829 20000829 20000829 20000829 20000829 20000829 20000829 20000828 20000828 20000828 20010416 20000828 20000828 20000828 20000828 20000828 20000828 20000828 20000828 20000828 20000828 20010416 20000828 20000825 20000825 20000825 20000825 20000825 20000825 20000825 20000825 20000825 20010504 20010416 20000825 20000825 20000825 20000824 20000824 20000824 20000824 20000824 20000824 20000824 20010416 20000824 20000824 20000824 20000824 20000824 20000824 20000824 20000824 20000824 20000824 20010416 20000823 20000823 20000823 20000823 20000823 20000823 20000823 20000823 20000823 20000823 20010416 20000822 20000822 20000822 20000822 20000822 20000822 20000822 20000822 20000821 20000821 20010416 20000821 20000821 20000821 20000821 20000821 20000821 20000821 20000821 20000821 20010413 20000818 20000818 20000818 20000818 20000818 20000818 20000818 20000818 20000817 20000817 20010413 20000817 20000817 20000817 20000817 20000817 20000817 20000817 20000817 20000817 20000817 20010413 20000817 20000817 20000816 20000816 20000816 20000816 20000815 20000815 20000814 20000814 20010413 20000811 20000811 20000811 20000811 20000811 20000811 20000811 20000811 20000811 20000811 20010413 20000811 20000811 20000811 20000811 20000811 20000811 20000810 20000810 20000810 20000810 20010504 20010413 20000810 20000810 20000810 20000810 20000809 20000809 20000809 20000809 20000809 20000809 20010413 20000809 20000809 20000809 20000809 20000809 20000809 20000809 20000809 20000808 20000808 20010413 20000808 20000808 20000808 20000808 20000808 20000808 20000808 20000808 20000808 20000808 20010413 20000808 20000808 20000808 20000808 20000808 20000807 20000807 20000807 20000807 20000807 20010413 20000807 20000807 20000807 20000807 20000807 20000807 20000804 20000804 20000804 20000804 20010413 20000804 20000804 20000804 20000804 20000803 20000803 20000803 20000803 20000803 20000802 20010413 20000802 20000802 20000802 20000802 20000802 20000801 20000801 20000801 20000801 20000801 20010413 20000801 20000801 20000801 20000731 20000731 20000731 20000731 20000731 20000731 20000731 20010413 20000731 20000731 20000731 20000731 20000731 20000731 20000731 20000731 20000731 20000731 20010413 20000731 20000731 20000731 20000731 20000731 20000728 20000728 20000728 20000728 20000728 20010504 20010413 20000728 20000728 20000728 20000728 20000728 20000728 20000728 20000728 20000728 20000727 20010413 20000727 20000727 20000727 20000727 20000727 20000727 20000727 20000727 20000727 20000727 20010413 20000726 20000726 20000726 20000726 20000726 20000726 20000726 20000726 20000726 20000726 20010413 20000726 20000726 20000726 20000726 20000726 20000726 20000726 20000726 20000726 20000726 20010413 20000726 20000726 20000726 20000726 20000726 20000726 20000725 20000725 20000725 20000725 20010412 20000725 20000725 20000724 20000724 20000724 20000720 20000720 20000720 20000719 20000719 20010412 20000719 20000719 20000719 20000719 20000719 20000719 20000719 20000719 20000714 20000714 20010412 20000714 20000714 20000714 20000714 20000714 20000714 20000713 20000713 20000713 20000713 20010412 20000713 20000712 20000712 20000712 20000712 20000712 20000712 20000712 20000712 20000711 20010412 20000711 20000711 20000711 20000711 20000711 20000711 20000711 20000711 20000711 20000711 20010504 20010412 20000711 20000711 20000711 20000710 20000710 20000710 20000710 20000710 20000710 20000710 20010412 20000710 20000710 20000710 20000710 20000710 20000710 20000710 20000710 20000710 20000710 20010412 20000710 20000707 20000707 20000707 20000707 20000707 20000707 20000707 20000707 20000706 20010412 20000706 20000706 20000706 20000706 20000706 20000706 20000706 20000705 20000705 20000705 20010411 20000705 20000705 20000705 20000630 20000630 20000630 20000630 20000630 20000630 20000630 20010411 20000630 20000629 20000629 20000629 20000629 20000629 20000629 20000629 20000629 20010411 20000629 20000629 20000629 20000629 20000629 20000629 20000629 20000629 20000629 20000628 20010411 20000628 20000628 20000628 20000628 20000628 20000628 20000627 20000627 20000627 20010411 20000627 20000626 20000626 20000626 20000626 20000626 20000626 20000626 20000626 20010411 20000626 20000626 20000626 20000623 20000623 20000623 20000623 20000623 20000623 20000623 20010504 20010411 20000623 20000623 20000622 20000622 20000622 20000622 20000622 20000621 20000621 20000621 20010411 20000621 20000621 20000621 20000621 20000621 20000621 20000621 20000621 20000621 20000621 20010411 20000620 20000620 20000620 20000620 20000620 20000620 20000620 20000620 20000620 20010411 20000620 20000620 20000619 20000619 20000619 20000619 20000619 20000619 20000616 20000616 20010411 20000616 20000616 20000616 20000616 20000616 20000616 20000616 20000616 20000616 20000615 20010411 20000615 20000615 20000615 20000612 20000612 20000612 20000612 20000612 20000612 20000606 20010411 20000606 20000606 20000606 20000606 20000606 20000605 20000605 20000605 20000605 20010411 20000605 20000605 20000605 20000603 20000603 20000603 20000602 20000602 20000602 20000602 20010411 20010411 20010504 20010411 20010411 20010411 20010411 20010411 20010411 20010411 20010411 20010410 20010410 20010504 20010410 20010410 20010410 20010410 20010410 20010410 20010410 20010410 20010410 20010410 20010503 20010410 20010410 20010410 20010410 20010410 20010410 20010410 20010410 20010410 20010410 20010503 20010410 20010410 20010409 20010409 20010409 20010409 20010409 20010409 20010409 20010409 20010507 20010503 20010409 20010409 20010409 20010409 20010409 20010409 20010409 20010409 20010409 20010409 20010503 20010406 20010406 20010406 20010406 20010406 20010406 20010406 20010406 20010406 20010406 20010503 20010406 20010406 20010406 20010406 20010406 20010406 20010406 20010406 20010406 20010406 20010503 20010406 20010406 20010406 20010406 20010406 20010406 20010406 20010406 20010406 20010406 20010503 20010406 20010406 20010406 20010406 20010405 20010405 20010405 20010405 20010405 20010405 20010503 20010405 20010405 20010405 20010405 20010404 20010404 20010404 20010404 20010404 20010404 20010503 20010404 20010404 20010404 20010404 20010404 20010404 20010404 20010404 20010404 20010503 20010402 20010402 20010402 20010402 20010402 20010402 20010402 20010402 20010402 20010402 20010503 20010402 20010402 20010402 20010402 20010331 20010331 20010331 20010331 20010331 20010331 20010503 20010331 20000603 20000602 20010331 20000602 20000602 20000601 20000601 20000601 20000601 20000601 20000601 20000601 20000601 20010331 20000601 20000601 20000601 20000531 20000531 20000530 20000530 20000530 20000530 20010331 20000526 20000526 20000526 20000526 20000526 20000526 20000525 20000525 20000525 20010331 20000525 20000525 20000525 20000525 20000525 20000525 20000525 20000525 20000525 20010331 20000525 20000525 20000525 20000523 20000523 20000523 20000523 20000523 20000523 20000523 20010331 20000523 20000523 20000523 20000523 20000523 20000523 20000523 20000523 20000523 20000523 20010331 20000522 20000522 20000522 20000522 20000522 20000522 20000522 20000522 20000522 20000522 20010331 20000522 20000522 20000522 20000522 20000522 20000516 20000516 20000516 20000516 20010331 20000516 20000516 20000516 20000516 20000516 20000516 20000516 20000516 20000516 20000515 20010507 20010502 20010331 20000515 20000515 20000515 20000515 20000512 20000512 20000512 20000512 20000512 20000512 20010330 20000512 20000511 20000511 20000511 20000511 20000511 20000511 20000511 20000511 20000511 20010330 20000511 20000511 20000511 20000511 20000510 20000510 20000510 20000510 20000510 20000508 20010330 20000508 20000508 20000508 20000508 20000508 20000505 20000505 20000505 20000505 20000502 20010330 20000502 20000502 20000502 20000502 20000502 20000502 20000502 20000502 20000501 20000501 20010330 20000501 20000501 20000501 20000501 20000501 20000428 20000428 20000428 20000428 20000428 20010330 20000428 20000428 20000427 20000427 20000427 20000427 20000427 20000427 20000427 20000427 20010330 20000427 20000427 20000427 20000427 20000427 20000427 20000426 20000426 20000426 20010330 20000426 20000426 20000426 20000426 20000426 20000426 20000426 20000426 20000426 20010330 20000425 20000425 20000425 20000425 20000425 20000425 20000425 20000425 20000425 20000425 20010502 20010330 20000424 20000424 20000424 20000424 20000424 20000424 20000424 20000424 20000424 20000424 20010329 20000424 20000424 20000424 20000424 20000424 20000424 20000424 20000421 20000421 20000421 20010329 20000421 20000421 20000420 20000420 20000420 20000420 20000420 20000420 20000420 20010329 20000420 20000420 20000419 20000419 20000419 20000419 20000419 20000419 20000419 20000419 20010323 20000419 20000419 20000419 20000419 20000419 20000419 20000419 20000419 20000419 20000418 20010323 20000418 20000418 20000418 20000418 20000418 20000418 20000418 20000418 20000418 20000418 20010323 20000418 20000418 20000417 20000417 20000417 20000414 20000414 20000414 20000414 20000414 20010323 20000414 20000414 20000414 20000414 20000414 20000414 20000414 20000414 20000414 20000413 20000413 20000413 20000413 20000413 20000413 20000413 20000413 20000413 20000413 20000412 20010323 20000412 20000412 20000412 20000412 20000412 20000412 20000412 20000412 20000412 20000412 20010502 20010323 20000412 20000412 20000411 20000411 20000411 20000411 20000411 20000411 20000411 20000411 20010323 20000411 20000411 20000411 20000411 20000411 20000411 20000410 20000410 20000410 20000410 20010323 20000405 20000405 20000405 20000405 20000405 20000405 20000405 20000405 20000405 20000405 20010323 20000405 20000404 20000404 20000404 20000404 20000404 20000404 20000404 20010323 20000404 20000404 20000404 20000404 20000404 20000404 20000404 20000403 20000403 20000403 20010323 20000403 20000403 20000403 20000403 20000403 20000403 20000403 20000403 20000403 20000331 20010323 20000331 20000331 20000331 20000331 20000331 20000331 20000331 20000331 20000331 20000331 20010323 20000331 20000331 20000331 20000331 20000331 20000331 20000331 20000330 20000330 20000330 20010323 20000330 20000330 20000330 20000330 20000330 20000330 20000329 20000329 20000329 20000329 20010323 20000329 20000329 20000329 20000329 20000329 20000328 20000328 20000327 20000327 20010502 20010323 20000327 20000327 20000327 20000327 20000327 20000327 20000327 20000327 20000327 20000327 20010323 20000327 20000327 20000327 20000327 20000327 20000327 20000327 20000327 20000327 20010323 20000327 20000327 20000327 20000327 20000327 20000327 20000326 20000326 20000326 20000326 20010323 20000317 20000317 20000317 20000317 20000317 20000317 20000317 20000317 20000317 20000317 20010323 20000317 20000317 20000316 20000316 20000316 20000316 20000316 20000316 20000316 20000316 20010323 20000316 20000316 20000313 20000313 20000313 20000313 20000313 20000313 20000313 20000310 20010323 20000310 20000310 20000309 20000309 20000309 20000309 20000309 20000309 20000309 20000309 20010323 20000309 20000309 20000308 20000308 20000308 20000308 20000308 20000308 20010323 20000308 20000307 20000307 20000307 20000307 20000307 20000307 20000307 20000306 20000306 20010323 20000306 20000306 20000306 20000306 20000306 20000306 20000306 20000306 20000306 20000306 20010502 20010323 20000306 20000303 20000303 20000302 20000302 20000302 20000302 20000301 20000301 20000301 20010323 20000301 20000301 20000301 20000301 20000301 20000229 20000229 20000228 20000228 20000228 20010323 20000228 20000228 20000228 20000228 20000228 20000228 20000228 20000228 20000228 20000228 20010322 20000227 20000227 20000224 20000224 20000224 20000224 20000224 20000224 20000224 20000224 20010322 20000224 20000224 20000224 20000224 20000224 20000224 20000224 20000224 20000224 20000224 20010321 20000224 20000224 20000224 20000222 20000222 20000222 20000222 20000222 20000222 20000221 20010321 20000221 20000221 20000221 20000221 20000221 20000221 20000221 20000218 20000218 20000218 20010321 20000218 20000218 20000218 20000217 20000217 20000217 20000217 20000217 20000217 20000217 20010321 20000217 20000217 20000217 20000217 20000217 20000217 20000217 20000217 20000217 20000217 20010321 20000217 20000217 20000217 20000216 20000216 20000216 20000216 20000216 20000215 20000215 20010502 20010321 20000215 20000215 20000215 20000215 20000215 20000215 20000215 20000214 20000214 20000211 20010321 20000211 20000211 20000211 20000210 20000210 20000210 20000210 20000210 20000210 20000209 20010321 20000209 20000208 20000208 20000208 20000208 20000208 20000208 20000207 20000207 20000204 20010321 20000204 20000204 20000204 20000204 20000204 20000204 20000204 20000204 20000202 20010321 20000202 20000202 20000201 20000201 20000201 20000201 20000201 20000201 20000201 20000201 20010321 20000201 20000201 20000201 20000201 20000201 20000131 20000131 20000131 20000131 20000131 20010321 20000131 20000131 20000131 20000131 20000131 20000131 20000131 20000131 20000131 20000131 20010321 20000131 20000130 20000130 20000130 20000128 20000128 20000128 20000128 20000128 20000128 20010321 20000128 20000128 20000128 20000125 20000125 20000125 20000125 20000125 20000125 20000125 20010321 20000125 20000124 20000123 20000123 20000123 20000121 20000121 20000121 20000121 20000121 20010502 20010321 20000121 20000120 20000120 20000120 20000120 20000120 20000120 20000120 20000120 20010321 20000120 20000120 20000120 20000118 20000118 20000118 20000118 20000118 20000118 20000118 20010321 20000118 20000118 20000117 20000117 20000117 20000117 20000117 20000117 20000115 20000115 20010321 20000115 20000115 20000115 20000112 20000112 20000112 20000112 20000111 20000111 20000111 20010321 20000111 20000111 20000111 20000111 20000111 20000111 20000111 20000111 20000111 20000111 20010321 20000111 20000111 20000111 20000111 20000111 20000111 20000111 20000111 20000111 20000111 20010321 20000111 20000111 20000111 20000111 20000111 20000111 20000111 20000111 20000111 20010320 20000111 20000111 20000111 20000111 20000111 20000111 20000111 20000111 20000111 20000111 20010320 20000111 20000111 20000111 20000111 20000111 20000110 20000110 20000110 20000110 20000110 20010320 20000110 20000110 20000110 20000110 20000110 20000110 20000110 20000110 20000110 20000110 20010502 20010320 20000110 20000110 20000110 20000107 20000107 20000107 20000107 20000107 20000107 20000107 20010320 20000107 20000107 20000107 20000107 20000107 20000107 20000106 20000106 20000106 20010320 20000106 20000105 20000105 20000105 20000105 20000105 20000105 20000105 20000105 20000105 20010319 20000105 20000105 20000104 20000104 20000104 20000104 20000104 20000104 20000103 20000103 20010319 19991230 19991230 19991230 19991230 19991230 19991230 19991230 19991230 19991230 20010319 19991230 19991230 19991230 19991230 19991230 19991230 19991230 19991230 19991230 20010319 19991229 19991229 19991222 19991222 19991222 19991222 19991222 19991222 19991222 19991222 20010319 19991222 19991222 19991222 19991221 19991217 19991217 19991217 19991217 19991217 19991217 20010319 19991217 19991217 19991217 19991217 19991217 19991217 19991217 19991217 19991217 19991217 20010319 19991217 19991217 19991217 19991217 19991217 19991217 19991216 19991216 19991216 19991216 20010502 20010319 19991216 19991216 19991216 19991215 19991215 19991215 19991214 19991210 19991210 19991210 20010319 20001201 20000927 20000918 20000811 20000811 20000728 20000629 20000629 20000629 20000628 20010319 20000620 20010319 20000331 20000313 20000308 20000228 20000217 20000131 20000107 20010319 20010319 20010319 20010319 20010319 20010319 20010502 20010319 20010319 20010318 20010318 20010318 20010318 20010314 20010314 20010314 20010314 20010507 20010502 20010314 20010314 20010314 20010314 20010312 20010312 20010312 20010312 20010312 20010312 20010502 20010312 20010312 20010312 20010312 20010312 20010312 20010312 20010312 20010312 20010312 20010502 20010312 20010312 20010312 20010312 20010312 20010312 20010309 20010309 20010309 20010309 20010502 20010309 20010309 20010309 20010309 20010309 20010309 20010308 20010308 20010308 20010308 20010502 20010308 20010308 20010308 20010308 20010308 20010308 20010308 20010308 20010308 20010308 20010502 20010308 20010307 20010307 20010307 20010307 20010307 20010307 20010307 20010306 20010306 20010502 20010306 20010306 20010306 20010306 20010306 20010306 20010306 20010306 20010306 20010306 20010502 20010306 20010306 20010306 20010306 20010306 20010306 20010306 20010306 20010305 20010305 20010502 20010305 20010305 20010305 20010305 20010305 20010305 20010305 20010305 20010302 20010302 20010502 20010302 20010302 20010302 20010302 20010302 20010302 20010302 20010302 20010302 20010507 20010502 20010302 20010302 20010302 20010301 20010301 20010301 20010301 20010301 20010301 20010301 20010502 20010301 20010301 20010301 20010301 20010301 20010301 20010301 20010228 20010228 20010228 20010502 20010227 20010227 20010226 20010226 20010226 20010226 20010226 20010226 20010226 20010226 20010502 20010226 20010226 20010226 20010226 20010226 20010222 20010222 20010222 20010222 20010222 20010502 20010222 20010222 20010222 20010221 20010221 20010221 20010221 20010219 20010219 20010219 20010502 20010219 20010219 20010219 20010219 20010219 20010219 20010219 20010219 20010219 20010216 20010501 20010216 20010216 20010216 20010216 20010216 20010216 20010216 20010216 20010216 20010216 20010501 20010216 20010216 20010216 20010216 20010216 20010216 20010216 20010216 20010216 20010216 20010501 20010216 20010216 20010216 20010216 20010215 20010215 20010215 20010215 20010215 20010215 20010501 20010215 20010215 20010215 20010215 20010215 20010212 20010212 20010212 20010212 20010212 20010507 20010501 20010212 20010212 20010212 20010212 20010212 20010212 20010212 20010212 20010212 20010212 20010501 20010212 20010212 20010212 20010212 20010212 20010212 20010212 20010212 20010212 20010212 20010501 20010212 20010212 20010212 20010206 20010206 20010206 20010206 20010206 20010206 20010206 20010501 20010206 20010206 20010206 20010206 20010206 20010206 20010206 20010205 20010205 20010205 20010501 20010205 20010205 20010205 20010205 20010205 20010205 20010205 20010205 20010205 20010205 20010501 20010205 20010205 20010205 20010205 20010205 20010205 20010202 20010202 20010202 20010202 20010501 20010202 20010202 20010202 20010202 20010202 20010202 20010202 20010202 20010202 20010202 20010501 20010202 20010202 20010202 20010202 20010202 20010202 20010202 20010202 20010202 20010131 20010501 20010131 20010131 20010131 20010131 20010131 20010131 20010131 20010131 20010131 20010131 20010501 20010131 20010131 20010131 20010131 20010131 20010131 20010131 20010131 20010131 20010131 20010507 20010501 20010131 20010131 20010131 20010131 20010131 20010131 20010131 20010131 20010130 20010130 20010501 20010130 20010130 20010130 20010130 20010130 20010130 20010130 20010130 20010130 20010130 20010501 20010130 20010130 20010130 20010130 20010130 20010130 20010130 20010130 20010130 20010129 20010501 20010129 20010129 20010129 20010129 20010129 20010129 20010129 20010129 20010129 20010129 20010501 20010129 20010129 20010129 20010129 20010129 20010126 20010126 20010126 20010126 20010126 20010501 20010126 20010126 20010126 20010126 20010126 20010126 20010126 20010126 20010126 20010126 20010501 20010126 20010126 20010126 20010126 20010126 20010126 20010126 20010126 20010126 20010126 20010501 20010125 20010124 20010124 20010124 20010124 20010124 20010124 20010124 20010124 20010124 20010501 20010124 20010124 20010124 20010124 20010124 20010124 20010124 20010124 20010124 20010124 20010501 20010124 20010124 20010124 20010124 20010124 20010124 20010124 20010124 20010124 20010123 20010507 20010430 20010123 20010123 20010123 20010123 20010123 20010123 20010123 20010123 20010123 20010123 20010430 20010123 20010123 20010123 20010123 20010123 20010123 20010123 20010123 20010123 20010123 20010430 20010123 20010123 20010119 20010119 20010119 20010119 20010119 20010119 20010119 20010119 20010430 20010119 20010119 20010119 20010119 20010119 20010119 20010119 20010119 20010119 20010119 20010430 20010119 20010119 20010119 20010119 20010119 20010119 20010119 20010119 20010118 20010430 20010118 20010118 20010118 20010118 20010118 20010118 20010118 20010118 20010118 20010117 20010430 20010117 20010117 20010117 20010117 20010117 20010117 20010117 20010117 20010117 20010117 20010430 20010117 20010117 20010117 20010117 20010117 20010117 20010117 20010117 20010117 20010117 20010430 20010117 20010117 20010117 20010116 20010116 20010116 20010116 20010116 20010116 20010116 20010430 20010116 20010116 20010116 20010116 20010116 20010112 20010112 20010112 20010112 20010112 20000317 20000317 20000316 20000316 20000316 20000316 20000313 20000313 20000313 20000313 20000313 20000313 20000310 20000310 20000308 20000302 20000301 20000301 20000301 19791231 20000228 20000228 20000228 19791231 20000228 20000224 20000224 20000222 20000222 20000222 20000222 20000221 20000221 20000221 20000217 20000215 20000215 20000215 20000215 20000207 20000202 20000201 20000131 20000131 20000125 20000120 20000118 20000118 20000117 20000110 20000110 20000107 20000107 20000106 20000106 20000104 20000103 19991230 19991222 19991221 19991217 19991217 19991217 19991216 19991216 19991210 20000602 20000107 19991230 20010305 20010202 20010202 19791231 20010501 20010112 19791231 19791231 20010430 20010424 19791231 20000829 20000825 19791231 19791231 20000818 20000817 20000817 20000817 20000816 20000816 20000809 20000809 20000802 20000801 20000726 19791231 20000726 20000726 20000726 20000725 20000724 20000724 20000719 20000714 20000714 20000711 20000711 20000710 20000710 20000710 20000706 20000706 20000706 20000705 20000705 20000630 20000630 20000630 20000630 20000628 20000628 20000628 20000628 20000628 20000627 20000627 20000626 20000623 20000622 20000622 20000619 20000619 20000612 20000606 20000606 20000606 20000606 20000606 20000606 20000605 20000605 20000605 20000603 20000603 20000603 20010411 19791231 20010404 20000807 19791231 20000620 20000601 20000601 20000531 20000531 20000530 20000530 20000526 20000526 20000526 20000525 20000525 20000525 20000523 19791231 20000522 20000522 20000522 20000522 20000522 20000516 20000516 20000515 20000515 20000515 20000515 20000512 20000512 20000511 20000511 20000511 20000511 20000510 20000510 20000508 20000508 20000508 20000502 20000502 20000502 20000502 20000427 20000427 20000427 20000427 20000424 20000419 20000419 20000419 20000418 20000418 19791231 20000414 20000412 20000410 20000410 19791231 20000405 20000405 20000405 20000405 20000405 20000405 20000405 20000404 20000403 20000403 20000403 20000403 20000403 20000403 20000403 20000331 20000331 20000330 20000330 20000327 20000327 20000327 20000327 20010416 20010425 20010423 20010423 20010413 20010409 20010502 20010502 20010502 20010430 20010410 20010427 20010411 20010504 20010501 20010423 20010419 20010501 20010411 20010412 20010425 20010416 20010501 20010430 20010430 20010430 20010507 20010502 20010501 20010424 20010424 20001010 20000627 20001221 20000606 20010302 20010404 20010411 20000111 20000120 20000327 20000327 20000405 20000427 20000525 20000821 20000426 20000825 20000829 20000906 20010503 20010424 20010504 20010425 20010409 20010507 20010427 20010502 20010502 20010501 20010502 20010424 20010501 20010501 20010430 20010425 20010425 20010424 20010419 20010507 20010412 20010502 20010504 20010504 20010503 20010502 20010501 20010501 20010501 20010430 20010430 20010427 20010427 20010411 20010411 20010411 20010410 20010410 20010502 20010502 20000829 20000825 20010411 20000405 20010507 20010504 20010411 20010411 20010411 20010411 20010411 20010411 20010411 20010411 20010411 20010411 20010411 20010411 20010411 20010411 20010411 20010411 20010411 20010411 20010411 20010411 20010411 20010411 20010411 20010412 20010412 20010412 20010412 20010412 20010412 20010412 20010412 20010413 20010413 20010413 20010413 20010413 20010413 20010413 20010413 20010413 20010413 20010413 20010413 20010413 20010413 20010413 20010413 20010413 20010413 20010413 20010416 20010416 20010416 20010416 20010416 20010416 20010416 20010416 20010416 20010416 20010416 20010416 20010416 20010416 20010416 20010416 20010418 20010418 20010418 20010419 20010419 20010419 20010419 20010419 20010419 20010419 20010419 20010419 20010419 20010419 20010419 20010419 20010419 20010419 20010419 20010419 20010423 20010423 20010423 20010423 20010423 20010423 20010423 20010423 20010423 20010423 20010423 20010424 20010424 20010424 20010424 20010424 20010424 20010424 20010424 20010424 20010424 20010424 20010424 20010424 20010424 20010424 20010424 20010424 20010424 20010424 20010424 20010424 20010425 20010425 20010425 20010425 20010425 20010425 20010425 20010425 20010425 20010425 20010425 20010425 20010425 20010425 20010427 20010427 20010427 20010427 20010427 20010427 20010427 20010427 20010427 20010427 20010427 20010427 20010427 20010427 20010427 20010427 20010427 20010427 20010427 20010427 20010430 20010430 20010430 20010430 20010430 20010430 20010430 20010430 20010430 20010430 20010430 20010430 20010501 20010501 20010501 20010501 20010501 20010501 20010501 20010501 20010501 20010501 20010501 20010501 20010501 20010501 20010501 20010501 20010501 20010501 20010501 20010501 20010501 20010501 20010501 20010501 20010502 20010502 20010502 20010502 20010502 20010502 20010502 20010502 20010502 20010502 20010502 20010502 20010502 20010502 20010502 20010502 20010502 20010502 20010502 20010502 20010502 20010502 20010502 20010502 20010502 20010503 20010503 20010503 20010503 20010503 20010503 20010503 20010503 20010503 20010503 20010503 20010503 20010504 20010504 20010504 20010504 20010504 20010504 20010504 20010504 20010507 20010507 20010507 20010507 20010507 20010507 20010507 20010507 20010507 20010507 20010507 20010507 20010507 20010507 20010507 20010507 20010409 20010409 20000829 20010416 20010416 20010501 20010411 20001202 20010118 20001221 20010104 20000828 20010608 20010620 20010507 20001109'
p76
aS'20011005 20011005 20001212 20001211 20001106 20010111 20010111 20010110 20010110 20010110 20010110 20010110 20010110 20010110 20001106 20010109 20010108 20010108 20010108 20010108 20010108 20010108 20001106 20010108 20010108 20010105 20010105 20010105 20010105 20010105 20010105 20001106 20010105 20010105 20010105 20010105 20010104 20010104 20010102 20010102 20010102 20001229 20001101 20001229 20001228 20001228 20001228 20001228 20001228 20001227 20001227 20001227 20001101 20001227 20001227 20001227 20001227 20001227 20001227 20001227 20001219 20001030 20001219 20001215 20001215 20001215 20001215 20001215 20001215 20001215 20001214 20001214 20001214 20001214 20001214 20001214 20001214 20001027 20001027 20001211 20001027 20001026 20001025 20001024 20001024 20001024 20001019 20001019 20001018 20001018 20001211 20001018 20001018 20001018 20001017 20001017 20001018 20001018 20001018 20001018 20001018 20001018 20001018 20001211 20001018 20001018 20001018 20001018 20001018 20001018 20001018 20001018 20001018 20001018 20001211 20001018 20001018 20001018 20001018 20001018 20001017 20001017 20001017 20001211 20001017 20001017 20000907 20000731 20000721 20000721 20000719 20000719 20000717 20000707 20000630 20000623 20001017 20000623 20000605 20000503 20000502 20000418 20000222 19991217 20001017 20001017 20001012 20001012 20001012 20001011 20001011 20001207 20001011 20001011 20001011 20001011 20001011 20001011 20001011 20001011 20001011 20001207 20001010 20001010 20001010 20001010 20001010 20001004 20001003 20001003 20001207 20001002 20000929 20000929 20000927 20000927 20000927 20000927 20000927 20000927 20000927 20001207 20000927 20000927 20000927 20000926 20000926 20000926 20000926 20000926 20000926 20000926 20001211 20001207 20000926 20000926 20000925 20000925 20000922 20000922 20000922 20000922 20000922 20001207 20000922 20000921 20000920 20000920 20000920 20000920 20000920 20001206 20000915 20000913 20000912 20000912 20000912 20000912 20000912 20000911 20000911 20001206 20000911 20000911 20000911 20000911 20000911 20000907 20000907 20000907 20000907 20001206 20000907 20000906 20000906 20000901 20000901 20000901 20000828 20000828 20000828 20000828 20000828 20000828 20000828 20000828 20000828 20000825 20000825 20000825 20000825 20000825 20000825 20000825 20000825 20000824 20000823 20000823 20000823 20001206 20000823 20000823 20000823 20000823 20000823 20000823 20000823 20000823 20000823 20000822 20001205 20000822 20000822 20000822 20000822 20000821 20000821 20000821 20000821 20000821 20001204 20000821 20000818 20000818 20000817 20000817 20000817 20000816 20000816 20000816 20000816 20001211 20001204 20000816 20000815 20000815 20000815 20000814 20000814 20000814 20000814 20000811 20000811 20001130 20000811 20000811 20000811 20000811 20000811 20000811 20000811 20000810 20000810 20000810 20001130 20000810 20000809 20000809 20000809 20000809 20000809 20000809 20000809 20000809 20000808 20001130 20000804 20000804 20000803 20000803 20000803 20000803 20000803 20000802 20000731 20001130 20000731 20000731 20000725 20000725 20000725 20000720 20001128 20000720 20000720 20000719 20000719 20000719 20000719 20000719 20000717 20001128 20000710 20000710 20000707 20000707 20000707 20000707 20000707 20000707 20000707 20001128 20000707 20000707 20000707 20000706 20000706 20000706 20000706 20000705 20000705 20000705 20001128 20000630 20000630 20000630 20000630 20000630 20000628 20000627 20001128 20000627 20000627 20000627 20000626 20000626 20000623 20000623 20000623 20000621 20000620 20001128 20000620 20000620 20000620 20000619 20000613 20000613 20000612 20000612 20000609 20001128 20000608 20000608 20000608 20000607 20000607 20000606 20000606 20000606 20000606 20000605 20000605 20000605 20000605 20000605 20000605 20000605 20000605 20000605 20000605 20000605 20001127 20000602 20000602 20000601 20000530 20000530 20000526 20000526 20000525 20000525 20000525 20001127 20000525 20000523 20000523 20000523 20000519 20000519 20000519 20000519 20000518 20001127 20000518 20000516 20000516 20000515 20000511 20000510 20001127 20000509 20000509 20000509 20000509 20000509 20000509 20000509 20001127 20000508 20000508 20000508 20000508 20000508 20000508 20000508 20000508 20000508 20000505 20001127 20000505 20000502 20000502 20000502 20000501 20000427 20000426 20000425 20001127 20000425 20000425 20000425 20000424 20000424 20000424 20000424 20000419 20001211 20001127 20000418 20000417 20000417 20000414 20000413 20000413 20000413 20000412 20000411 20000411 20001127 20000411 20000410 20000410 20000406 20000406 20000405 20000405 20000405 20000405 20000405 20001127 20000405 20000405 20000403 20000403 20000331 20000331 20000329 20000328 20000328 20000328 20001127 20000327 20000327 20000322 20000321 20000321 20000320 20000314 20000314 20000314 20000314 20001127 20000314 20000314 20000314 20000314 20000314 20000314 20000314 20000314 20000313 20000313 20001127 20000313 20000309 20000309 20000309 20000309 20000308 20000307 20000307 20000307 20001127 20000301 20000301 20000229 20000229 20000229 20000229 20000225 20000224 20000224 20000224 20001127 20000224 20000224 20000224 20000223 20000223 20000218 20000218 20000218 20000218 20000218 20001127 20000215 20000215 20000215 20000211 20000211 20000210 20000209 20000209 20000209 20000209 20001127 20000209 20000208 20000207 20000207 20000207 20000204 20000204 20000204 20000204 20000203 20001211 20001120 20000203 20000202 20000202 20000202 20000128 20000127 20000126 20000125 20000125 20000124 20001120 20000124 20000124 20000124 20000124 20000124 20000124 20000124 20000118 20000117 20000117 20001120 20000117 20000117 20000117 20000114 20000114 20000112 20000112 20000112 20000110 20000110 20001120 20000110 20000107 20000106 20000106 20000106 20000106 20000106 20000105 20000105 20001120 20000105 20000105 20000105 20000105 20000104 20000104 20000104 20000101 19991230 20001120 19991230 19991230 19991228 19991227 19991227 19991227 19991227 19991227 19991227 19991221 20001120 19991220 19991220 19991217 19991217 19991217 19991216 19991216 19991216 19991216 19991216 20001120 19991215 19991213 19991213 20010423 20010423 20010423 20010423 20010423 20010423 20010423 20001120 20010423 20010423 20010420 20010420 20010420 20010420 20010420 20010419 20010419 20001120 20010418 20010418 20010418 20010418 20010418 20010417 20010417 20010412 20010411 20010411 20001211 20001115 20010411 20010411 20010411 20010411 20010411 20010411 20010411 20010411 20010409 20010409 20001115 20010409 20010409 20010409 20010409 20010409 20010409 20010409 20010409 20010406 20010406 20001114 20010406 20010406 20010406 20010406 20010406 20010405 20010405 20010405 20010405 20010405 20001114 20010405 20010405 20010405 20010404 20010404 20010404 20010404 20010404 20010404 20010404 20001114 20010404 20010404 20010404 20010404 20010404 20010404 20010404 20010404 20010404 20010404 20001114 20010404 20010403 20010403 20010403 20010403 20010403 20010403 20010403 20010403 20001114 20010402 20010402 20010402 20010330 20010330 20010330 20010330 20010330 20010330 20001114 20010330 20010329 20010329 20010329 20010327 20010327 20010327 20010326 20001114 20010326 20010326 20010323 20010320 20010320 20010320 20010319 20001113 20010309 20010309 20010309 20010309 20010309 20010309 20010309 20010309 20010309 20010309 20001211 20001113 20010309 20010309 20010309 20010309 20010308 20010308 20010308 20010308 20010307 20010307 20001110 20010307 20010307 20010306 20010306 20010306 20010306 20010306 20010306 20010306 20010306 20001110 20010302 20010301 20010228 20010227 20010227 20010227 20010227 20010226 20010226 20001110 20010226 20010226 20010222 20010222 20010221 20010221 20010221 20010221 20010221 20010221 20010221 20010220 20010220 20010220 20010220 20010220 20001110 20010216 20010215 20010215 20010215 20010214 20010212 20010209 20010209 20010209 20010209 20010206 20010206 20010206 20010206 20010206 20010206 20010206 20010206 20010206 20001109 20010206 20010205 20010205 20010205 20010205 20010205 20010205 20010205 20010205 20001109 20010205 20010202 20010202 20010202 20010202 20010202 20010202 20010202 20010202 20010202 20001109 20010202 20010202 20010202 20010202 20010202 20010202 20010202 20010202 20010201 20010201 20001211 20001109 20010131 20010131 20010131 20010130 20010130 20010130 20010130 20010130 20010129 20010126 20001109 20010126 20010126 20010126 20010126 20010126 20010125 20010125 20010125 20010123 20001108 20010123 20010123 20010123 20010122 20010122 20010122 20010122 20010122 20010122 20001106 20010122 20010118 20010118 20010118 20010118 20010118 20010118 20010117 20001106 20010117 20010117 20010117 20010117 20010117 20010116 20010116 20010116 20010116 20010116 20001106 20010116 20010116 20010116 20010116 20010116 20010116 20010116 20010116 20010116 20010116 20001106 20010116 20010116 20010116 20010116 20010116 20010116 20010116 20010116 20010116 20010116 20001106 20010115 20010115 20010115 20010112 20010112 20010112 20010112 20010112 20010112 20010112 20001106 20010112 20010112 20010112 20010112 20010112 20010112 20010112 20010112 20010112 20010112 20001106 20010112 20010112 20010112 20010112 20010112 20010111 20010111 20010111 20010111 20001108 20001108 20001108 20001108 20001219 19791231 20001006 20001006 20000825 19791231 19791231 19791231 20010105 19791231 20001206 20001116 20010702 20010702 20010702 20010504 20010424 20010424 20010424 20010424 20010709 20001219 20001006 20001006 20010105 20010105 20010105 20001219 20011030 20011113 20010105 20001006 20020128 20020123 20010411 20010411 20010411 20010411 20010411 20010411 20010411 20010411 20010409 20010409 20020123 20010409 20010409 20010409 20010409 20010409 20010409 20010409 20010409 20010406 20010406 20020117 20010406 20010406 20010406 20010406 20010406 20010405 20010405 20010405 20010405 20010405 20020117 20010405 20010405 20010405 20010404 20010404 20010404 20010404 20010404 20010404 20010404 20020117 20010404 20010404 20010404 20010404 20010404 20010404 20010404 20010404 20010404 20010404 20020116 20010404 20010403 20010403 20010403 20010403 20010403 20010403 20010403 20010403 20010403 20020116 20010402 20010402 20010402 20010402 20010330 20010330 20010330 20010330 20010330 20010330 20020115 20010330 20010329 20010329 20010329 20010328 20010327 20010327 20010327 20010326 20010326 20020115 20010326 20010326 20010323 20010323 20010424 20010424 20010424 20010424 20010424 20010424 20020115 20010424 20010424 20010424 20010424 20010430 20010430 20010430 20010501 20010501 20010501 20020128 20020114 20010501 20010501 20010502 20010504 20010504 20010507 20010507 20010507 20010507 20010507 20020114 20010507 20010507 20010508 20010508 20010514 20010514 20010514 20010514 20010514 20010514 20020114 20010514 20010514 20010514 20010514 20010514 20010514 20010514 20010514 20010516 20010517 20020113 20010517 20010517 20010517 20010518 20010518 20010518 20010521 20010521 20010521 20010521 20020112 20010524 20010525 20010525 20010525 20010525 20010529 20010529 20010529 20010529 20010529 20020112 20010529 20010604 20010604 20010604 20010604 20010604 20010604 20010604 20010604 20010604 20020111 20010604 20010604 20010604 20010604 20010604 20010604 20010604 20010604 20010604 20010604 20020111 20010604 20010605 20010605 20010605 20010608 20011029 20011029 20011029 20011029 20020110 20011029 20011028 20011028 20011028 20011028 20011028 20011028 20011028 20011028 20011028 20020110 20011028 20011028 20011028 20011028 20011028 20011028 20011028 20011028 20011026 20020125 20020110 20011026 20011026 20011026 20011025 20011025 20011025 20011025 20011025 20011024 20011024 20020110 20011024 20011024 20011024 20011023 20011023 20011023 20011023 20011023 20011023 20011023 20020110 20011022 20011022 20011022 20011022 20011022 20011022 20011019 20011019 20011019 20011019 20020110 20011019 20011018 20011018 20011018 20011018 20011018 20011018 20011015 20011015 20011015 20020108 20011015 20011012 20011012 20011012 20011011 20011011 20011011 20011011 20011011 20011011 20020105 20011011 20011010 20011010 20011010 20011010 20011010 20011010 20011009 20011009 20011009 20020104 20011009 20011009 20011005 20011005 20011005 20011005 20011005 20011005 20011005 20011005 20020104 20011005 20011005 20011005 20011005 20011005 20011005 20011005 20011005 20011005 20011005 20020104 20011004 20011003 20011003 20011003 20011003 20011002 20011002 20011002 20011001 20011001 20020104 20011001 20011001 20011001 20011001 20011001 20011001 20011001 20011001 20011001 20010926 20020125 20020104 20010926 20010926 20010926 20010926 20010926 20010925 20010925 20020103 20020103 20020103 20011026 20020103 20020102 20011028 20020102 20011030 20011030 20011030 20011030 20011030 20011031 20011101 20020102 20011101 20011102 20011102 20011102 20011102 20011102 20011105 20011106 20011107 20011107 20020102 20011107 20011108 20011108 20011108 20011108 20011108 20011108 20011108 20011109 20011109 20020102 20011109 20011109 20011111 20011111 20011111 20011111 20011111 20011111 20011112 20011113 20020125 20020102 20011113 20011113 20011113 20011113 20011113 20011113 20011113 20011114 20011114 20020102 20011114 20011114 20011114 20011115 20011115 20011115 20011118 20011118 20011119 20011119 20020102 20011119 20011119 20011119 20011120 20011120 20011120 20011120 20011120 20011126 20011126 20020102 20011126 20011126 20011126 20020102 20020102 20020102 20020102 20020102 20011231 20020125 20011231 20011231 20011231 20011221 20011220 20011220 20011127 20011127 20011127 20011127 20011127 20011220 20011219 20011219 20011219 20020125 20011219 20011219 20011219 20011219 20011217 20010423 20010423 20010423 20010423 20010423 20020124 20010423 20010423 20010420 20010420 20010420 20010420 20010420 20010419 20010419 20010419 20020123 20010418 20010418 20010418 20010418 20010418 20010417 20010417 20010412 20010411 20010411 20011002 20011005 20010814 20010905 20010910 20011005 19991230 20011010 20011005 20011005 20011005 20011005 20011002 20011022 20011023 20011005 20010830 20020204 20010925 20010906 20010711 20020104 20020103 20020103 20020102 20020102 20020102 20020102 20011220 20011219 20011214 20011214 20011210 20011207 20011205 20011119 20011119 20010330 20011005 20010705 20010702 20010702 20010620 20010926 20020110 20010926 20010309 20011228 20020102 20020206 20020204 20001215 20011026 20011005 20011005 20000126 20011005 20011115 20011005 20011005 20001002 20011005 20011115 20011005 20011005 20011005 20011005 20011115 20000605 20011005 20010125 20011111 20020131 20010905 20010905 20020129 20020129 20020128 20020128 20020128 20020128 20020128 20020128 20020205 20020112 20020109 20020108 20020204 20020201 20020131 20020131 20020131 20020131 20020206 20011026 20020204 20020204 20011010 20010521'
p77
aS'20001212 20010517 20000902 20010322 20010323 20010323 20010329 20010404 20010404 20010404 20010406 20010406 20010410 20010412 20010413 20010416 20010420 20010426 20010426 20010427 20010427 20000907 20010512 20010523 20010524 20010529 20010529 20010530 20010607 20001010 20010610 20001027 20010625 20001028 20010626 20010704 20010705 20010705 20010706 20010706 20010706 20010706 20010709 20010710 20010710 20010719 20001121 20001121 20001121 20001122 20001128 20001130 20001130 20001130 20001130 20001201 20001212 20001212 20001213 20001215 20001219 20001219 20001221 20001226 20010102 20010102 20010103 20010104 20010114 20010122 20010205 20010205 20010205 20010206 20010213 20010214 20010301 20010302 20010305 20010305 20010305 20010313 20010828 20010928 20010926 20010924 20010824 20010920 20010920 20010912 20010911 20010824 20010904 20010823 20010823 20010801 20010801 20010801 20010719 20010831 20010710 20010710 20011023 20011022 20010911 20010912 20011030 20011101 20010904 20011108 20011114 20011116 20011121 20010920 20010920 20010924 20010926 20010928 20011003 20011026 20011029 20011119 20011120 20011130 20000926 20010404 20010323 20010323 20000111 20000110 20000210 20000209 20000208 20000211 20000210 20000810 20000810 20000811 20000815 20000821 20001026 20000901 20000907 20000908 20000920 19990927 20001002 20001006 20001027 20001031 20001102 20001121 19991214 20001125 20001128 20001129 20001130 20001130 20001206 20001206 20001206 20001207 20001212 20001212 20001213 20001213 20000309 20000324 20000326 20000331 20000405 20000405 20000407 20010601 20010529 20010521 20010521 20010518 20010517 20010514 20010510 20010509 20010501 20010427 20010427 20010426 20010425 20010416 20010416 20010411 20010410 20010404 20010327 20010326 20010323 20010322 20000501 20010301 20000504 20010226 20010221 20010212 20010207 20010126 20000601 20010126 20010112 20010112 20010111 20010102 20000615 20001222 20000616 20001219 20001216 20001215 20000710 20000727 20000728 20000731 20000731 20010718 20010710 20010710 20000802 20010706 20010706 20000802 20010627 20000802 20010612 20010612 20000803 20010608 20000803 20000803 20000810 20000810 20011008 20010827 20010827 20010706 20010706 20010826 20010826 20011022 20011018 20011017 20011016 20011016 20011026 20011019 20011017 20011029 20011120 20011120 20011120 20011121 20010824 20010710 20010910 20010906 20010927 20011003 20011008 20011017 20011029 20011109 20011130 20011116 20011009 20010801 20010905 20010925 20010827 20010824 20010924 20010710 20010919 20011120 20011116 20011126 20020109 20010706 20010706 20010706 20010502 20010427 20010427 20011015 20011116 20011005 20010927 20010918 20010918 20010517 20000524 20011114 20011116 20011120 20011126 20011126 20000825 20011116 20010517 20011005 20010927 20010531 20011116 20000707 20000825 20010926 20010926 20011116 20011121 20011120 20001206 20001218 20010628 20010221 20010226 20010228 20010409 20010409 20010411 20010501 20010510 20010510 20010511 20010511 20010515 20011121 20011121 20011121 20011121 20011121 20011121 20011121 20011121 20011121 20011121 20011121 20011121 20011030 20011018 20011004 20011018 20011018 20011018 20011019 20011018 20011022 20011125 20011125 20011126 20011126 20011126 20011126 20011126 20011126 20011126 20011126 20011126 20011126 20011126 20011126 20010919 20011127 20011127 20011127 20011127 20011127 20011127 20011127 20011018 20011127 20011127 20011127 20011127 20011127 20011127 20011018 20011127 20011018 20011127 20011127 20011127 20011018 20011018 20011031 20010924 20010917 20010823 20010719 20011018 20011018 20011127 20011127 20011018 20011120 20011018 20011018 20011018 20011019 20010912 20011019 20011019 20011019 20011019 20011019 20011019 20011019 20011019 20011019 20011021 20011021 20011021 20011020 20011020 20011020 20011020 20011022 20011022 20011022 20011022 20011022 20011022 20011022 20011022 20011022 20011022 20011022 20011022 20011019 20011023 20011023 20011023 20011022 20011022 20011022 20011022 20011022 20011022 20011024 20011024 20011024 20011024 20011023 20011023 20011023 20011023 20011025 20011025 20011025 20011025 20011025 20011025 20011025 20011025 20011025 20011025 20011025 20011026 20011026 20011026 20011026 20011026 20011026 20011028 20011028 20011028 20011029 20011029 20011029 20011029 20011029 20011029 20011029 20011029 20011029 20011029 20011029 20011029 20011029 20011029 20011029 20011029 20011029 20011029 20011029 20011029 20011029 20011029 20011029 20011019 20011024 20011119 20011119 20011119 20011119 20011119 20011119 20011017 20011119 20011119 20011017 20011119 20011119 20011119 20011017 20011120 20011120 20011120 20011017 20011120 20011120 20011017 20011120 20011120 20011017 20011120 20011120 20011120 20011120 20011120 20011120 20011120 20011005 20011003 20010920 20010628 20011120 20011026 20010927 20011109 20011109 20011103 20011114 20011103 20011106 20011108 20011108 20011108 20011120 20011031 20011031 20011105 20011106 20011120 20011121 20011121 20011029 20010517 20010517 20011210 20011018 20011017 20011022 20011023 20011022 20011017 20011026 20011029 20011116 20011119 20011119 20011120 20011120 20011120 20011121 20011121 20011121 20011022 20011120 20011220 20011115 20011120 20011126 20011126 20011126 20011113 20011102 20010905 20011017 20010919 20010927 20011116 20010706 20010706'
p78
aS'20001010 20001106 20010511 20010515 20010530 20010511 20010425 20010511 20010515'
p79
aS'20010116 20020105 20020101 20011008 20011010 20020122 20011230 20001110 20001110 20011008 20011111 20001110 20011114 20011117 20011008 20011030 20011008 20010330 20001213 20011008 20011207 20011008 20001213 20010722 20010621 20001207 20011114 20011117 20010514'
p80
aS'20010327 20010802 20010822 20010827 20020321 20020214 20011025 20020322 20011010 20011126 20011025 20011030 20011031 20011119 20011102 20010828 20010831 20010605 20001213 20001031 20010530 20010530 20010529 20010529 20010525 20010525 20001211 20010524 20010524 20010524 20001211 20010523 20010523 20010523 20010523 20010522 20010522 20010521 20010521 20010521 20001211 20010521 20010517 20010517 20010517 20010517 20010517 20010517 20010516 20010516 20001208 20010516 20010515 20010515 20010511 20010510 20010510 20001208 20010510 20010510 20010508 20010508 20010508 20010507 20010507 20010507 20001208 20010507 20010507 20010504 20010504 20010504 20010504 20010504 20010504 20010504 20010504 20001207 20010503 20010502 20010502 20010501 20010501 20010501 20010501 20010501 20001207 20010501 20010430 20010430 20010430 20010430 20010430 20010430 20010430 20010430 20010430 20001207 20010430 20010430 20010427 20010427 20010427 20010427 20010427 20010426 20010426 20010426 20001213 20001207 20010426 20010426 20010426 20010426 20010426 20010426 20010425 20010425 20010425 20001207 20010425 20010425 20010424 20010424 20010424 20010424 20001207 20010423 20010423 20010423 20010423 20010423 20010423 20010423 20010423 20010423 20001207 20010419 20010419 20010419 20010419 20010419 20010419 20010419 20010419 20010419 20001207 20010417 20010417 20010416 20010416 20010416 20010416 20010416 20001207 20010411 20010411 20010411 20010411 20010411 20010411 20010411 20010410 20001207 20010410 20010410 20010410 20010409 20010409 20010409 20010409 20010409 20001206 20010406 20010406 20010406 20010405 20010405 20010405 20010404 20001206 20010404 20010404 20010404 20010404 20010404 20010403 20010403 20001206 20010403 20010403 20001213 20001206 20001206 20001206 20001206 20001206 20001206 20001205 20001205 20001213 20001204 20001204 20001201 20001201 20001201 20001129 20001213 20001128 20001127 20001127 20001121 20001213 20001121 20001120 20001120 20001120 20001120 20001120 20001120 20001120 20001120 20001120 20001120 20001120 20001120 20001120 20001115 20001115 20001114 20001114 20001114 20001212 20001114 20001113 20001113 20001110 20001110 20001109 20001109 20001109 20001108 20001108 20001107 20001107 20001106 20001106 20001106 20001106 20010504 20010504 20010504 20010504 20010504 20010504 20010504 20010507 20010507 20010507 20010507 20010507 20010507 20010508 20010508 20010508 20010509 20010510 20010510 20010510 20010510 20010510 20010511 20010514 20010515 20010515 20010515 20010516 20010516 20010516 20010501 20010516 20010517 20010517 20010517 20010517 20010517 20010517 20010521 20010521 20010521 20010502 20010521 20010521 20010522 20010522 20010523 20010523 20010523 20010523 20010523 20010523 20010502 20010523 20010523 20010524 20010524 20010524 20010524 20010524 20010524 20010525 20010525 20010502 20010529 20010529 20010529 20010529 20010530 20010530 20010503 20010504 20010430 20010430 20010430 20010501 20010501 20010501 20010501 20010501 20010430 20010430 20010430 20010430 20010430 20010430 20010430 20010430 20011114 20011114 20011114 20011114 20011114 20011114 20011114 20011114 20011115 20011115 20011115 20011115 20011115 20011115 20011115 20011116 20011116 20011116 20011119 20011119 20011119 20011119 20011119 20011119 20011119 20011119 20011119 20011119 20011119 20011119 20011119 20011120 20011120 20011120 20011120 20011120 20011120 20011120 20011121 20011121 20011121 20011121 20011121 20011121 20011121 20011121 20011126 20011126 20011126 20011127 20011127 20011127 20011127 20011127 20011130 20011130 20011201 20011202 20011210 20011212 20011220 20011220 20011221 20011226 20011226 20011227 20011227 20011101 20011101 20011102 20011102 20011102 20011102 20011102 20011102 20011102 20011104 20011104 20011105 20011105 20011105 20011105 20011106 20011106 20011107 20011107 20011107 20011107 20011107 20011107 20011107 20011107 20011107 20011108 20011108 20011108 20011108 20011108 20011108 20011108 20011109 20011109 20011109 20011109 20011109 20011109 20011109 20011109 20011109 20011109 20011109 20011112 20011114 20011114 20011114 20011114 20010501 20010501 20010426 20011109 20011116 20011031 20011009 20010921 20010921 20020102 20020322 20010620 20011025 20011018 20011024 20011022 20010524 20020228 20010327 20010730 20010802 20010808 20010420 20010920 20011012 20011114 20011115'
p81
aS'20001123 20010503 20000706 19990614 19990802'
p82
aS'20010327 20001112 20011112 20011129 20010712 20010712 20001114 20010605 20011121 20010607 20010607 20010606'
p83
aS'20000926 20001008 20001027 20000803 20000922 20001008 20001106 20010123'
p84
aS'20011220 20010502 20011008 20011004 20011012 20011015 20011015 20011015 20011013 20011021 20011020 20011022 20011023 20011007 20011119 20011007 20010913 20011118 20011122 20011126 20011028 20011028 20011029 20010522 20010522 20001023 20020114 20010502 20020115 20010522 20010522 20011002 20011127 20011227 20010522 20010522 20011218 20010220 20011005 20011011 20011121 20010522 20000905 20011023 20010522 20010624 20010801 20010627 20010328 20011004 20010920 20010912 20010910 20010925 20010622 20010611 20011016 20011025 20020102 20020102 20011226 20011224 20011220 20020112 20011208 20020110 20020110 20011204 20011127 20020110 20020110 20011126 20020109 20011112 20020109 20020108 20011119 20020106 20020106 20010912 20011028 20010621 20010419 20010812 20010314 20010731 20010712 20010618 20010529 20010502 20010502 20010430 20010423 20010420 20010316 20010315 20011019 20010917 20010917 20010924 20010824 20010719 20010718 20010627 20010627 20010531 20010531 20010502 20010430 20010430 20010330 20011022 20011021 20011021 20011021 20011019 20011014 20011013 20011013 20011013 20011013 20011013 20011012 20011005 20011004 20011003 20011001 20011001 20010925 20020121 20020121 20020121 20020131 20020130 20020129 20020127 20020105 20020203 20020203 20010824 20010719 20010718 20011022 20011021 20011021 20011021 20011019 20011014 20011013 20011013 20011013 20011013 20011013 20011005 20011004 20011003 20011001 20011001 20010925 20010924 20010505 20010313 20010403 20010622 20011120 20010424 20010221 20010806 20010805 20010410 20001213 20001212 20001113 20001113 20001113 20001113 20001107 20001106 20001210 20001106 20001106 20001106 20001102 20001102 20001102 20001101 20001101 20001101 20001101 20001210 20001031 20001031 20001031 20001031 20001031 20001031 20001030 20001030 20001030 20001210 20001030 20001027 20001027 20001027 20001027 20001027 20001024 20001024 20001024 20001023 20001210 20001019 20001019 20001019 20001018 20001018 20001018 20001018 20001018 20001018 20001018 20001210 20001017 20001017 20001017 20001015 20001015 20001015 20001015 20001013 20001013 20001013 20001210 20001012 20001012 20001012 20001012 20001012 20001011 20001011 20001010 20001008 20001210 20001008 20001008 20001008 20001004 20001004 20001004 20001003 20001003 20001002 20001210 20001002 20001002 20000929 20000929 20000928 20000928 20000927 20000927 20000927 20000927 20001210 20000927 20000927 20000926 20000926 20000926 20000926 20000926 20000925 20001213 20001210 20000925 20000925 20000925 20000925 20000925 20000925 20000925 20000925 20000920 20001210 20000920 20000920 20000920 20000920 20000920 20000919 20000918 20000917 20000917 20001210 20000917 20000917 20000917 20000915 20000914 20000914 20000914 20001210 20000912 20000912 20000908 20000908 20000908 20000908 20000908 20000908 20000907 20001210 20000907 20000907 20000907 20000906 20000906 20000906 20000906 20000906 20000905 20000905 20001210 20000905 20000905 20000905 20000905 20000905 20000905 20000905 20000905 20000905 20000905 20001210 20000824 20000824 20000824 20000824 20000821 20000821 20000821 20001210 20000820 20000820 20000820 20000820 20000820 20000820 20000818 20000817 20000817 20001210 20000817 20000816 20000815 20000815 20000815 20000815 20000815 20000815 20000815 20001210 20000815 20000810 20000810 20000810 20000809 20000809 20000808 20000808 20001213 20001210 20000808 20000807 20000807 20000806 20000806 20000804 20000804 20000804 20000804 20000804 20001210 20000804 20000804 20000804 20000804 20000804 20000804 20000804 20000803 20001210 20000803 20000803 20000803 20000803 20000802 20000801 20000801 20000801 20001210 20000728 20000728 20000727 20000725 20000725 20000724 20000724 20000724 20001209 20000721 20000721 20000721 20000721 20000721 20000720 20000720 20000720 20000720 20001207 20000720 20000720 20000720 20000720 20000718 20000718 20000718 20000718 20000718 20001205 20000717 20000717 20000717 20000717 20000714 20000714 20000713 20000712 20000712 20001205 20000712 20000712 20000712 20000712 20000712 20000711 20000711 20000711 20000710 20001204 20000710 20000710 20000710 20000707 20000706 20000705 20000628 20000628 20000628 20000628 20001204 20000628 20000627 20000627 20000627 20000627 20000627 20000627 20000626 20000623 20001213 20001204 20000622 20000622 20000622 20000622 20000622 20000621 20000620 20000619 20001204 20000618 20000618 20000618 20000616 20000613 20000612 20000609 20000609 20000609 20000606 20000605 20000602 20000602 20000602 20000601 20001203 20000530 20000526 20000526 20000526 20000525 20000523 20000523 20000523 20000523 20001202 20000523 20000523 20000523 20000522 20000522 20001202 20000517 20000517 20000517 20000517 20000515 20000515 20000514 20000514 20001202 20000514 20000514 20000514 20000512 20000511 20000511 20000510 20000510 20001202 20000510 20000510 20000510 20000508 20000507 20000507 20000507 20000507 20000507 20000507 20001202 20000502 20000502 20000501 20000501 20000427 20000427 20000422 20000421 20000421 20000420 20001202 20000417 20000414 20000413 20000329 20000328 20000326 20000326 20000326 20000324 20001213 20001202 20000324 20000316 20000308 20000307 20000306 20000223 20000222 20000220 20000220 20000218 20001202 20000218 20000218 20000215 20000214 20000213 20000213 20000213 20000213 20001202 20000213 20000213 20000213 20000213 20000213 20000213 20000208 20000206 20000206 20000206 20001202 20000206 20000206 20000206 20000201 20000131 20000128 20000125 20000125 20000123 20001202 20000117 20000109 20000104 20000104 20000103 20000103 20000103 20000103 20001202 19991227 19991221 19991219 19991219 19991219 19991219 19991219 19991219 19991219 19991219 20001202 19991212 19991212 20001031 20000720 20001202 20001202 20001202 20001213 20001202 20001130 20001129 20001129 20001129 20001129 20001129 20001128 20001128 20001213 20001127 20001127 20001127 20001127 20001127 20001126 20001126 20001126 20001125 20001213 20001125 20001125 20001125 20001125 20001125 20001125 20001123 20001123 20001118 20001213 20001118 20001118 20001118 20001114 20001113 20001113 20001113 20001113 20001113 20000512 20000514 20000516 20000517 20000103 20000601 20000602 20000606 20001211 20001213 20000714 20001214 20001218 20000731 20001228 20001229 20000905 20000815 20000915 20000915 20000218 20001214 20001214 20001214 20001214 20001215 20001215 20001217 20001217 20001217 20001217 20001217 20001217 20001217 20001217 20001217 20001218 20001219 20001219 20001219 20001219 20001219 20001219 20001219 20001219 20001219 20001219 20001220 20001221 20001221 20001222 20001223 20001224 20001224 20001225 20001226 20001226 20001227 20001227 20001227 20001228 20001228 20001228 20001228 20001229 20001230 20001231 20001231 20010101 20010102 20010102 20010102 20010102 20010102 20010104 20010104 20010104 20010104 20010104 20010106 20010106 20010107 20010107 20010107 20010107 20010108 20010109 20010109 20010109 20010109 20010110 20010111 20010114 20010114 20010115 20010115 20010115 20010115 20010117 20010117 20010117 20010117 20010117 20010117 20010117 20010119 20010121 20010121 20010121 20010121 20010122 20010122 20010123 20010123 20010123 20010124 20010124 20000419 20000505 20010125 20010920 20010917 20010912 20010911 20010611 20010608 20010125 20000103 20000815 20020127 20001211 20000601 20000606 20000103 20000714 20001213 20000915 20000915 20000218 20000419 20001218 20000512 20000514 20000516 20000517 20010122 20010122 20010122 20010122 20010123 20010123 20010124 20010124 20010124 20010124 20010124 20001101 20001101 20001101 20001101 20001101 20001101 20001101 20001101 20001102 20001102 20001102 20001102 20001106 20001106 20001106 20001106 20001107 20001109 20001109 20001109 20001109 20001113 20001113 20001114 20001114 20001114 20001114 20001114 20001114 20001114 20001114 20001115 20001118 20001118 20001118 20001123 20001123 20001126 20001126 20001126 20001126 20001126 20001126 20001127 20001127 20001127 20001127 20001127 20001127 20001127 20001127 20001127 20001128 20001128 20001129 20001129 20001129 20001129 20001129 20001129 20001130 20001202 20001202 20001202 20001202 20001202 20001202 20001202 20001202 20001202 20001202 20001202 20001202 20001202 20001202 20001202 20001202 20001202 20001203 20001204 20001204 20001204 20001205 20001205 20001205 20001205 20001209 20001210 20001210 20001210 20001210 20001210 20001210 20001210 20001210 20001210 20001210 20001210 20001210 20001210 20001210 20001210 20001210 20001210 20001210 20001210 20001210 20001210 20001211 20001211 20001213 20001213 20001213 20001213 20001213 20001213 20001213 20001213 20001213 20001213 20001214 20001214 20001214 20001214 20001214 20001215 20001215 20001217 20001217 20001217 20001217 20001217 20001217 20001217 20001218 20001218 20001218 20001218 20001219 20001220 20001220 20001220 20001220 20001220 20001220 20001220 20001220 20001220 20001220 20001221 20001221 20001222 20001223 20001224 20001224 20001226 20001226 20001227 20001227 20001227 20001228 20001228 20001228 20001228 20001228 20001228 20001229 20001229 20001230 20001231 20001231 20010102 20010102 20010102 20010102 20011023 20011028 20011029 20010102 20011109 20011109 20011109 20011109 20011110 20011112 20011112 20011114 20011115 20011115 20010102 20011115 20011115 20011116 20011116 20011116 20011116 20011116 20011116 20011116 20011116 20010103 20011119 20011119 20011119 20011119 20011119 20011119 20011119 20011119 20011120 20011120 20010103 20011120 20011120 20011120 20011121 20011121 20011121 20011121 20011121 20011121 20011123 20010104 20011123 20011126 20011126 20011126 20010105 20010105 20010105 20010105 20010107 20011127 20011127 20011127 20011127 20011127 20011127 20011127 20010107 20001101 20010108 20010108 20010108 20010109 20010109 20010109 20010109 20010109 20010110 20010110 20010111 20010115 20010115 20010115 20010116 20010116 20010116 20010117 20010117 20010117 20010117 20010117 20010117 20010117 20010117 20010119 20010124 20010124 20010124 20010124 20010124 20010124 20001129 20011112 20011220 20020117 20010409 20011220 20010522 20011022 20011023 20011023 20011025 20011120 20011026 20010502 20010502 20010502 20010529 20010502 20010502 20011009 20010510 20010502 20010522 20020130 20011120 20011121 20011121 20011123 20020127 20020121 20020121 20020121 20020116 20020112 20020108 20020108 20020116 20010529 20010409 20011022 20011022 20011021 20010426 20011120 20020121 20020121 20020112 20010502 20010507 20020130 20010510 20010522 20010524 20010529 20020127 20020121 20020121 20020203 20020131 20020123 20010430 20010522 20011116 20010812 20010813 20010910 20010607 20010608 20001202 20011015 20011014 20011013 20011114 20011115 20011023 20011120 20011121 20011127 20011127 20011021 20011019 20011029 20011017 20010531 20010531 20010530 20010508 20010604 20010604'
p85
aS'20011116 20010823 20011114 20010911 20010402 20010911 19991228 20011115 20010612 20010606 20010606 20010605 20010605 20010605 20010605 20010605 20010612 20010604 20010604 20010602 20010612 20010611 20010607 20010606 20001212 20001214 20001215 20001215 20001215 20001218 20010102 20010102 20010122 20000620 20010412 19791231 20001208 20001208 20001209 20001209 19791231 20011016 20010928 20010924 20010911 20010910 20010905 20010905 20010903 20010903 20010830 20010828 20011013 20010828 20010828 20010828 20010828 20010828 20010824 20010823 20010821 20010821 20010821 20011012 20010808 20010808 20010807 20010807 20010807 20010806 20010806 20010801 20010730 20010730 20011011 20010727 20010719 20010706 20010702 20010627 20010626 20010626 20010626 20010626 20010626 20011009 20010626 20010625 20010625 20010625 20010613 20010612 20011008 20011016 20011001 20011105 20011106 20011106 20011106 20011114 20011114 20011115 20011115 20011116 20011116 20010928 20011121 20010621 20010928 20011012 20010621 20010621 20010621 20010621 20010621 20010621 20010621 20010621 20010621 20010621 20010621 20010621 20010621 20000414 20000410 20000405 20000405 20000404 20000326 20000326 20000309 20000308 20000303 20000217 20000217 19991228 19991227 20010531 20010514 20010508 20010508 20010504 20010502 20010501 20010430 20010327 20010319 20010319 20010315 20010315 20010312 20010307 20010305 20010228 20010228 20010227 20010227 20010218 20010205 20010131 20010129 20010108 20010105 20010103 20001218 20001218 20001208 20001204 20001128 20001122 20001122 20001106 20001103 20001030 20001026 20001002 20000925 20000919 20000913 20000913 20000913 20000901 20000901 20000830 20000824 20000822 20000822 20000821 20000728 20000717 20000715 20000712 20000707 20000707 20000630 20000627 20000606 20000514 19791231 20011214 19791231'
p86
a.