(lp0
S'ken.rice@enron.com'
p1
aS'kenneth.lay@enron.com'
p2
aS'david.delainey@enron.com'
p3
aS'wes.colwell@enron.com'
p4
aS'rex.shelby@enron.com'
p5
aS'tim.belden@enron.com'
p6
aS'kevin.hannon@enron.com'
p7
aS'raymond.bowen@enron.com'
p8
aS'jeff.skilling@enron.com'
p9
aS'ben.glisan@enron.com'
p10
aS'paula.rieker@enron.com'
p11
aS'mark.koenig@enron.com'
p12
aS'richard.causey@enron.com'
p13
aS'christopher.calger@enron.com'
p14
aS'a..martin@enron.com'
p15
aS'mark.haedicke@enron.com'
p16
aS'george.wasaff@enron.com'
p17
aS'david.haug@enron.com'
p18
aS'stanley.horton@enron.com'
p19
aS'robert.hayes@enron.com'
p20
aS'philippe.bibi@enron.com'
p21
aS'charlene.jackson@enron.com'
p22
aS'john.buchanan@enron.com'
p23
aS'julia.murray@enron.com'
p24
aS'larry.izzo@enron.com'
p25
aS'joseph.deffner@enron.com'
p26
aS'jeffrey.sherrick@enron.com'
p27
aS'jim.piro@enron.com'
p28
aS'john.sherriff@enron.com'
p29
aS'gene.humphrey@enron.com'
p30
aS'jeff.donahue@enron.com'
p31
aS'tracy.foy@enron.com'
p32
aS's..muller@enron.com'
p33
aS'marty.sunde@enron.com'
p34
aS'jim.fallon@enron.com'
p35
aS'rick.bergsieker@enron.com'
p36
aS'ken.powers@enron.com'
p37
aS'rebecca.carter@enron.com'
p38
aS'mark.pickering@enron.com'
p39
aS'sanjay.bhatnagar@enron.com'
p40
aS'richard.shapiro@enron.com'
p41
aS'mark.frevert@enron.com'
p42
aS'jeffrey.shankman@enron.com'
p43
aS'dan.leff@enron.com'
p44
aS'phillip.allen@enron.com'
p45
aS'bill.cordes@enron.com'
p46
aS'vicki.sharp@enron.com'
p47
aS'kulvinder.fowler@enron.com'
p48
aS'michael.brown@enron.com'
p49
aS'james.bannantine@enron.com'
p50
aS'jeremy.blachman@enron.com'
p51
aS'vince.kaminski@enron.com'
p52
aS'elizabeth.tilney@enron.com'
p53
aS'terence.thorn@enron.com'
p54
aS'dana.gibbs@enron.com'
p55
aS'john.lavorato@enron.com'
p56
aS'rob.walls@enron.com'
p57
aS'brian.redmond@enron.com'
p58
aS'rebecca.mcdonald@enron.com'
p59
aS'rockford.meyer@enron.com'
p60
aS'mitchell.taylor@enron.com'
p61
aS'james.derrick@enron.com'
p62
aS'richard.lewis@enron.com'
p63
aS'james.hughes@enron.com'
p64
aS'keith.dodson@enron.com'
p65
aS'jeffrey.mcmahon@enron.com'
p66
aS'rod.hayslett@enron.com'
p67
aS'jay.fitzgerald@enron.com'
p68
aS'steven.kean@enron.com'
p69
aS'adam.umanoff@enron.com'
p70
aS'mark.metts@enron.com'
p71
aS'gary.hickerson@enron.com'
p72
aS'cindy.olson@enron.com'
p73
aS'michael.moran@enron.com'
p74
aS'chip.cox@enron.com'
p75
aS'mike.mcconnell@enron.com'
p76
aS'rick.buy@enron.com'
p77
aS'louise.kitchen@enron.com'
p78
aS'sally.beck@enron.com'
p79
aS'greg.whalley@enron.com'
p80
aS'kevin.garland@enron.com'
p81
aS'danny.mccarty@enron.com'
p82
aS'greg.piper@enron.com'
p83
aS'janet.dietrich@enron.com'
p84
aS'george.mcclellan@enron.com'
p85
aS'w.duran@enron.com'
p86
a.