(dp0
S'METTS MARK'
p1
(dp2
S'bonus'
p3
F0.8468170086566752
sS'exercised_stock_options'
p4
F-1.483259665299441
sS'corpus_score'
p5
F-0.33578494319264435
sS'poi'
p6
I00
ssS'BAXTER JOHN C'
p7
(dp8
g3
F0.9492480828061418
sg4
F0.929231812915895
sg5
F-0.4365275953447373
sg6
I00
ssS'ELLIOTT STEVEN'
p9
(dp10
g3
F0.7671658291074017
sg4
F0.8813438909074439
sg5
F-0.4365275953447373
sg6
I00
ssS'CORDES WILLIAM R'
p11
(dp12
g3
F-1.119306791961304
sg4
F0.5719738061322187
sg5
F-0.4303759572291095
sg6
I00
ssS'HANNON KEVIN P'
p13
(dp14
g3
F0.9822235233643459
sg4
F0.9004370764305075
sg5
F0.809326193597835
sg6
I01
ssS'MORDAUNT KRISTINA M'
p15
(dp16
g3
F0.756214389927324
sg4
F-1.483259665299441
sg5
F-0.4365275953447373
sg6
I00
ssS'MEYER ROCKFORD G'
p17
(dp18
g3
F-1.119306791961304
sg4
F0.5292476008398864
sg5
F-0.42213727143102875
sg6
I00
ssS'MCMAHON JEFFREY'
p19
(dp20
g3
F1.063507612375724
sg4
F0.6528670155570169
sg5
F-0.14402916675657312
sg6
I00
ssS'HORTON STANLEY C'
p21
(dp22
g3
F-1.119306791961304
sg4
F0.8910809897107794
sg5
F0.2892248185222058
sg6
I00
ssS'PIPER GREGORY F'
p23
(dp24
g3
F0.7868986713706491
sg4
F0.6180962939874275
sg5
F0.8088793411816231
sg6
I00
ssS'HUMPHREY GENE E'
p25
(dp26
g3
F-1.119306791961304
sg4
F0.764382501838649
sg5
F0.21562397434675776
sg6
I00
ssS'UMANOFF ADAM S'
p27
(dp28
g3
F0.8872368840659511
sg4
F-1.483259665299441
sg5
F-0.41971332397993105
sg6
I00
ssS'BLACHMAN JEREMY M'
p29
(dp30
g3
F0.8982886582975521
sg4
F0.5966089114966467
sg5
F-0.2931922597401584
sg6
I00
ssS'SUNDE MARTIN'
p31
(dp32
g3
F0.8695969032568684
sg4
F-1.483259665299441
sg5
F-0.0014117966424443311
sg6
I00
ssS'GIBBS DANA R'
p33
(dp34
g3
F-1.119306791961304
sg4
F0.7599828475307779
sg5
F-0.42976258309442494
sg6
I00
ssS'LOWRY CHARLES P'
p35
(dp36
g3
F-1.119306791961304
sg4
F0.4859469485649699
sg5
F-0.4365275953447373
sg6
I00
ssS'COLWELL WESLEY'
p37
(dp38
g3
F0.9492480828061418
sg4
F-1.483259665299441
sg5
F-0.35619930247860015
sg6
I01
ssS'MULLER MARK S'
p39
(dp40
g3
F0.9363898197153622
sg4
F0.6460818728042004
sg5
F-0.4008259305222499
sg6
I00
ssS'JACKSON CHARLENE R'
p41
(dp42
g3
F0.7174430377793862
sg4
F0.37867645284670476
sg5
F-0.06325916953065341
sg6
I00
ssS'WESTFAHL RICHARD K'
p43
(dp44
g3
F-1.119306791961304
sg4
F-1.483259665299441
sg5
F-0.4365275953447373
sg6
I00
ssS'WALTERS GARETH W'
p45
(dp46
g3
F-1.119306791961304
sg4
F0.6422572777202362
sg5
F-0.4365275953447373
sg6
I00
ssS'WALLS JR ROBERT H'
p47
(dp48
g3
F0.8982886582975521
sg4
F0.8632469383802509
sg5
F-0.3385723968159681
sg6
I00
ssS'KITCHEN LOUISE'
p49
(dp50
g3
F1.0895001726919677
sg4
F0.2519121905238056
sg5
F4.7621882242718705
sg6
I00
ssS'CHAN RONNIE'
p51
(dp52
g3
F-1.119306791961304
sg4
F-1.483259665299441
sg5
F-0.4365275953447373
sg6
I00
ssS'BELFER ROBERT'
p53
(dp54
g3
F-1.119306791961304
sg4
F-0.24020537526705507
sg5
F-0.4365275953447373
sg6
I00
ssS'SHANKMAN JEFFREY A'
p55
(dp56
g3
F1.0247362602277863
sg4
F0.6938519480539274
sg5
F0.6748411010687334
sg6
I00
ssS'WODRASKA JOHN'
p57
(dp58
g3
F-1.119306791961304
sg4
F-1.483259665299441
sg5
F-0.4365275953447373
sg6
I00
ssS'BERGSIEKER RICHARD P'
p59
(dp60
g3
F0.7174430377793862
sg4
F-1.483259665299441
sg5
F-0.41356604799247937
sg6
I00
ssS'URQUHART JOHN A'
p61
(dp62
g3
F-1.119306791961304
sg4
F-1.483259665299441
sg5
F-0.4365275953447373
sg6
I00
ssS'BIBI PHILIPPE A'
p63
(dp64
g3
F0.9223051860783196
sg4
F0.696369005219465
sg5
F-0.29895265062897164
sg6
I00
ssS'PIRO JIM'
p65
(dp66
g3
F-1.119306791961304
sg4
F-1.483259665299441
sg5
F-0.4052324076765619
sg6
I00
ssS'RIEKER PAULA H'
p67
(dp68
g3
F0.8695969032568684
sg4
F0.7131688249552123
sg5
F3.3453028362807276
sg6
I01
ssS'WHALEY DAVID A'
p69
(dp70
g3
F-1.119306791961304
sg4
F0.2822012632897146
sg5
F-0.4365275953447373
sg6
I00
ssS'BECK SALLY W'
p71
(dp72
g3
F0.8695969032568684
sg4
F-1.483259665299441
sg5
F3.310696945338785
sg6
I00
ssS'HAUG DAVID L'
p73
(dp74
g3
F-1.119306791961304
sg4
F-1.483259665299441
sg5
F-0.190014143686335
sg6
I00
ssS'ECHOLS JOHN B'
p75
(dp76
g3
F0.6844675972211824
sg4
F0.5596169825423304
sg5
F-0.4365275953447373
sg6
I00
ssS'MENDELSOHN JOHN'
p77
(dp78
g3
F-1.119306791961304
sg4
F-1.483259665299441
sg5
F-0.4365275953447373
sg6
I00
ssS'HICKERSON GARY J'
p79
(dp80
g3
F1.0007197324470187
sg4
F-1.483259665299441
sg5
F-0.3475003480390859
sg6
I00
ssS'CLINE KENNETH W'
p81
(dp82
g3
F-1.119306791961304
sg4
F-1.483259665299441
sg5
F-0.4365275953447373
sg6
I00
ssS'LEWIS RICHARD'
p83
(dp84
g3
F-1.119306791961304
sg4
F0.6128069788121605
sg5
F-0.42136634983410365
sg6
I00
ssS'HAYES ROBERT E'
p85
(dp86
g3
F-1.119306791961304
sg4
F-1.483259665299441
sg5
F-0.43513601284427805
sg6
I00
ssS'KOPPER MICHAEL J'
p87
(dp88
g3
F0.8893297455201158
sg4
F-1.483259665299441
sg5
F-0.4365275953447373
sg6
I01
ssS'LEFF DANIEL P'
p89
(dp90
g3
F0.9223051860783196
sg4
F-1.483259665299441
sg5
F0.1405038811281732
sg6
I00
ssS'LAVORATO JOHN J'
p91
(dp92
g3
F1.2295984085267195
sg4
F0.8564756279089989
sg5
F4.44667522399461
sg6
I00
ssS'BERBERIAN DAVID'
p93
(dp94
g3
F-1.119306791961304
sg4
F0.7121475761095869
sg5
F-0.4365275953447373
sg6
I00
ssS'DETMERING TIMOTHY J'
p95
(dp96
g3
F0.7958575841480855
sg4
F0.7462051635572217
sg5
F-0.4365275953447373
sg6
I00
ssS'WAKEHAM JOHN'
p97
(dp98
g3
F-1.119306791961304
sg4
F-1.483259665299441
sg5
F-0.4365275953447373
sg6
I00
ssS'POWERS WILLIAM'
p99
(dp100
g3
F-1.119306791961304
sg4
F-1.483259665299441
sg5
F-0.42700196322297346
sg6
I00
ssS'GOLD JOSEPH'
p101
(dp102
g3
F0.8797924492148792
sg4
F0.5104143408174083
sg5
F-0.4365275953447373
sg6
I00
ssS'BANNANTINE JAMES M'
p103
(dp104
g3
F-1.119306791961304
sg4
F0.8522529734684051
sg5
F-0.4315974722581047
sg6
I00
ssS'DUNCAN JOHN H'
p105
(dp106
g3
F-1.119306791961304
sg4
F0.4857591664625665
sg5
F-0.4365275953447373
sg6
I00
ssS'SHAPIRO RICHARD S'
p107
(dp108
g3
F0.8586454640767908
sg4
F0.5612417099341881
sg5
F1.6980090260733747
sg6
I00
ssS'SHERRIFF JOHN R'
p109
(dp110
g3
F0.9822235233643459
sg4
F0.730909394698675
sg5
F1.128638546148834
sg6
I00
ssS'SHELBY REX'
p111
(dp112
g3
F0.6844675972211824
sg4
F0.7121475761095869
sg5
F0.045053815386103195
sg6
I01
ssS'LEMAISTRE CHARLES'
p113
(dp114
g3
F-1.119306791961304
sg4
F0.5018679010756539
sg5
F-0.4365275953447373
sg6
I00
ssS'DEFFNER JOSEPH M'
p115
(dp116
g3
F0.8468170086566752
sg4
F0.015530869102454228
sg5
F-0.25321340304782874
sg6
I00
ssS'KISHKILL JOSEPH G'
p117
(dp118
g3
F-1.119306791961304
sg4
F-1.483259665299441
sg5
F-0.4365275953447373
sg6
I00
ssS'WHALLEY LAWRENCE G'
p119
(dp120
g3
F1.0846545975138127
sg4
F0.820164312271925
sg5
F0.032671379830737646
sg6
I00
ssS'MCCARTY DANNY J'
p121
(dp122
g3
F-1.119306791961304
sg4
F0.5748956036886882
sg5
F-0.1901394771420798
sg6
I00
ssS'MCCONNELL MICHAEL S'
p123
(dp124
g3
F0.9363898197153622
sg4
F0.7120165324294149
sg5
F2.048119548694756
sg6
I00
ssS'DELAINEY DAVID W'
p125
(dp126
g3
F1.0846545975138127
sg4
F0.7649426867087448
sg5
F3.7635161834506987
sg6
I01
ssS'SULLIVAN-SHAKLOVITZ COLLEEN'
p127
(dp128
g3
F0.5820365230717157
sg4
F0.6851427466592044
sg5
F-0.4365275953447373
sg6
I00
ssS'WROBEL BRUCE'
p129
(dp130
g3
F-1.119306791961304
sg4
F0.3348796657758508
sg5
F-0.4365275953447373
sg6
I00
ssS'LINDHOLM TOD A'
p131
(dp132
g3
F0.6844675972211824
sg4
F0.7813391831158643
sg5
F-0.4365275953447373
sg6
I00
ssS'MEYER JEROME J'
p133
(dp134
g3
F-1.119306791961304
sg4
F-1.483259665299441
sg5
F-0.4365275953447373
sg6
I00
ssS'LAY KENNETH L'
p135
(dp136
g3
F1.209865566263472
sg4
F1.1805954282155324
sg5
F2.7492953600216765
sg6
I01
ssS'BUTTS ROBERT H'
p137
(dp138
g3
F0.8797924492148792
sg4
F-1.483259665299441
sg5
F-0.4365275953447373
sg6
I00
ssS'OLSON CINDY K'
p139
(dp140
g3
F0.8797924492148792
sg4
F0.7133373429927539
sg5
F0.6667890515035566
sg6
I00
ssS'MCDONALD REBECCA'
p141
(dp142
g3
F-1.119306791961304
sg4
F0.5949932716950381
sg5
F-0.364170607528487
sg6
I00
ssS'CUMBERLAND MICHAEL S'
p143
(dp144
g3
F0.756214389927324
sg4
F-1.483259665299441
sg5
F-0.4365275953447373
sg6
I00
ssS'GAHN ROBERT S'
p145
(dp146
g3
F0.8227628074774235
sg4
F0.2560148713690862
sg5
F-0.4365275953447373
sg6
I00
ssS'MCCLELLAN GEORGE'
p147
(dp148
g3
F0.9067353459427016
sg4
F0.5333230160716486
sg5
F-0.4004771025810956
sg6
I00
ssS'HERMANN ROBERT J'
p149
(dp150
g3
F0.8695969032568684
sg4
F0.3806848584047251
sg5
F-0.4365275953447373
sg6
I00
ssS'SCRIMSHAW MATTHEW'
p151
(dp152
g3
F-1.119306791961304
sg4
F0.5954499221580896
sg5
F-0.4365275953447373
sg6
I00
ssS'GATHMANN WILLIAM D'
p153
(dp154
g3
F-1.119306791961304
sg4
F0.723911574691825
sg5
F-0.4365275953447373
sg6
I00
ssS'HAEDICKE MARK E'
p155
(dp156
g3
F0.9429587590628314
sg4
F0.5614721283046099
sg5
F0.3799880583389497
sg6
I00
ssS'BOWEN JR RAYMOND M'
p157
(dp158
g3
F0.9666536832287276
sg4
F-1.483259665299441
sg5
F-0.22647659109145088
sg6
I01
ssS'GILLIS JOHN'
p159
(dp160
g3
F-1.119306791961304
sg4
F-0.07236075379726267
sg5
F-0.4365275953447373
sg6
I00
ssS'FITZGERALD JAY L'
p161
(dp162
g3
F0.7671658291074017
sg4
F0.5749154745402829
sg5
F-0.16270794487869453
sg6
I00
ssS'MORAN MICHAEL P'
p163
(dp164
g3
F-1.119306791961304
sg4
F0.20457705533893647
sg5
F-0.43271532779294836
sg6
I00
ssS'REDMOND BRIAN L'
p165
(dp166
g3
F-1.119306791961304
sg4
F0.9471793112443028
sg5
F0.9077108200416628
sg6
I00
ssS'BAZELIDES PHILIP J'
p167
(dp168
g3
F-1.119306791961304
sg4
F0.7097900263845127
sg5
F-0.4365275953447373
sg6
I00
ssS'BELDEN TIMOTHY N'
p169
(dp170
g3
F1.1673528012520669
sg4
F0.630301930312983
sg5
F0.8631346093404388
sg6
I01
ssS'DURAN WILLIAM D'
p171
(dp172
g3
F0.8797924492148792
sg4
F0.6949099008447162
sg5
F-0.41488043035837774
sg6
I00
ssS'THORN TERENCE H'
p173
(dp174
g3
F-1.119306791961304
sg4
F0.8669435452277626
sg5
F-0.4334438190669305
sg6
I00
ssS'FASTOW ANDREW S'
p175
(dp176
g3
F0.9610765382262574
sg4
F-1.483259665299441
sg5
F-0.4365275953447373
sg6
I01
ssS'FOY JOE'
p177
(dp178
g3
F-1.119306791961304
sg4
F0.4735964492057675
sg5
F-0.4321198025846452
sg6
I00
ssS'CALGER CHRISTOPHER F'
p179
(dp180
g3
F0.9552806266365237
sg4
F-1.483259665299441
sg5
F-0.03701559376754183
sg6
I01
ssS'RICE KENNETH D'
p181
(dp182
g3
F1.0050034179645388
sg4
F1.0959813091162867
sg5
F-0.13439857056928842
sg6
I01
ssS'KAMINSKI WINCENTY J'
p183
(dp184
g3
F0.7868986713706491
sg4
F0.6127226583479969
sg5
F0.7146133166857603
sg6
I00
ssS'LOCKHART EUGENE E'
p185
(dp186
g3
F-1.119306791961304
sg4
F-1.483259665299441
sg5
F-0.4365275953447373
sg6
I00
ssS'COX DAVID'
p187
(dp188
g3
F0.8893297455201158
sg4
F0.3090062778321643
sg5
F-0.39907586298187414
sg6
I00
ssS'OVERDYKE JR JERE C'
p189
(dp190
g3
F-1.119306791961304
sg4
F0.8927223666662399
sg5
F-0.4365275953447373
sg6
I00
ssS'PEREIRA PAULO V. FERRAZ'
p191
(dp192
g3
F-1.119306791961304
sg4
F-1.483259665299441
sg5
F-0.4365275953447373
sg6
I00
ssS'STABLER FRANK'
p193
(dp194
g3
F0.8198741119288528
sg4
F-1.483259665299441
sg5
F-0.4365275953447373
sg6
I00
ssS'SKILLING JEFFREY K'
p195
(dp196
g3
F1.1768901257052684
sg4
F1.091701741705448
sg5
F0.20529106446510922
sg6
I01
ssS'BLAKE JR. NORMAN P'
p197
(dp198
g3
F-1.119306791961304
sg4
F-1.483259665299441
sg5
F-0.4365275953447373
sg6
I00
ssS'SHERRICK JEFFREY B'
p199
(dp200
g3
F-1.119306791961304
sg4
F0.6922003792783528
sg5
F0.379280523218341
sg6
I00
ssS'PRENTICE JAMES'
p201
(dp202
g3
F-1.119306791961304
sg4
F0.6191288932210468
sg5
F-0.4365275953447373
sg6
I00
ssS'GRAY RODNEY'
p203
(dp204
g3
F-1.119306791961304
sg4
F-1.483259665299441
sg5
F-0.4365275953447373
sg6
I00
ssS'PICKERING MARK R'
p205
(dp206
g3
F0.7443859345072085
sg4
F0.09307296965673449
sg5
F-0.3053212616467754
sg6
I00
ssS'THE TRAVEL AGENCY IN THE PARK'
p207
(dp208
g3
F-1.119306791961304
sg4
F-1.483259665299441
sg5
F-0.4365275953447373
sg6
I00
ssS'NOLES JAMES L'
p209
(dp210
g3
F-1.119306791961304
sg4
F-1.483259665299441
sg5
F-0.4365275953447373
sg6
I00
ssS'KEAN STEVEN J'
p211
(dp212
g3
F0.9223051860783196
sg4
F0.7457641589954417
sg5
F5.197706238983381
sg6
I00
ssS'FOWLER PEGGY'
p213
(dp214
g3
F-1.119306791961304
sg4
F0.6808234272379876
sg5
F-0.41075181776215125
sg6
I00
ssS'WASAFF GEORGE'
p215
(dp216
g3
F0.756214389927324
sg4
F0.7162380815934851
sg5
F-0.19979359277244182
sg6
I00
ssS'WHITE JR THOMAS E'
p217
(dp218
g3
F0.8043042717932348
sg4
F0.6775992054298214
sg5
F-0.4365275953447373
sg6
I00
ssS'CHRISTODOULOU DIOMEDES'
p219
(dp220
g3
F-1.119306791961304
sg4
F0.8886034943305446
sg5
F-0.4365275953447373
sg6
I00
ssS'ALLEN PHILLIP K'
p221
(dp222
g3
F1.1334951366529271
sg4
F0.7217762277452353
sg5
F-0.13491488464350765
sg6
I00
ssS'SHARP VICTORIA T'
p223
(dp224
g3
F0.8468170086566752
sg4
F0.44283442273389856
sg5
F-0.3373053206220157
sg6
I00
ssS'JAEDICKE ROBERT'
p225
(dp226
g3
F-1.119306791961304
sg4
F0.5087293234425899
sg5
F-0.4365275953447373
sg6
I00
ssS'WINOKUR JR. HERBERT S'
p227
(dp228
g3
F-1.119306791961304
sg4
F-1.483259665299441
sg5
F-0.4365275953447373
sg6
I00
ssS'BROWN MICHAEL'
p229
(dp230
g3
F-1.119306791961304
sg4
F-1.483259665299441
sg5
F-0.3551131265913704
sg6
I00
ssS'BADUM JAMES P'
p231
(dp232
g3
F-1.119306791961304
sg4
F0.4295759306621799
sg5
F-0.4365275953447373
sg6
I00
ssS'HUGHES JAMES A'
p233
(dp234
g3
F-1.119306791961304
sg4
F0.5945191954787137
sg5
F-0.338533836714146
sg6
I00
ssS'REYNOLDS LAWRENCE'
p235
(dp236
g3
F0.5820365230717157
sg4
F0.8565375173468546
sg5
F-0.4365275953447373
sg6
I00
ssS'DIMICHELE RICHARD G'
p237
(dp238
g3
F0.9223051860783196
sg4
F0.9605385533067171
sg5
F-0.4365275953447373
sg6
I00
ssS'BHATNAGAR SANJAY'
p239
(dp240
g3
F-1.119306791961304
sg4
F0.784623569430484
sg5
F-0.4338856816275745
sg6
I00
ssS'CARTER REBECCA C'
p241
(dp242
g3
F0.7443859345072085
sg4
F-1.483259665299441
sg5
F0.2531700716048153
sg6
I00
ssS'BUCHANAN HAROLD G'
p243
(dp244
g3
F0.8198741119288528
sg4
F0.6082242018634211
sg5
F-0.42461323825396136
sg6
I00
ssS'YEAP SOON'
p245
(dp246
g3
F-1.119306791961304
sg4
F0.3849306562905575
sg5
F-0.4365275953447373
sg6
I00
ssS'MURRAY JULIA H'
p247
(dp248
g3
F0.7868986713706491
sg4
F0.4971866269425006
sg5
F-0.4062338176446712
sg6
I00
ssS'GARLAND C KEVIN'
p249
(dp250
g3
F0.8982886582975521
sg4
F0.5682541878919513
sg5
F0.20975690059088348
sg6
I00
ssS'DODSON KEITH'
p251
(dp252
g3
F0.5293282402502643
sg4
F-1.483259665299441
sg5
F-0.41983293859397997
sg6
I00
ssS'YEAGER F SCOTT'
p253
(dp254
g3
F-1.119306791961304
sg4
F0.9627119366281885
sg5
F-0.4365275953447373
sg6
I01
ssS'HIRKO JOSEPH'
p255
(dp256
g3
F-1.119306791961304
sg4
F1.1636865355283705
sg5
F-0.4365275953447373
sg6
I01
ssS'DIETRICH JANET R'
p257
(dp258
g3
F0.8468170086566752
sg4
F0.7049523597383237
sg5
F-0.25326288977599704
sg6
I00
ssS'DERRICK JR. JAMES V'
p259
(dp260
g3
F0.8893297455201158
sg4
F0.9720897846355576
sg5
F0.4630780774302924
sg6
I00
ssS'FREVERT MARK A'
p261
(dp262
g3
F1.0247362602277863
sg4
F0.997673853029299
sg5
F-0.17014164345788682
sg6
I00
ssS'PAI LOU L'
p263
(dp264
g3
F0.9223051860783196
sg4
F1.0570875562335198
sg5
F-0.4365275953447373
sg6
I00
ssS'BAY FRANKLIN R'
p265
(dp266
g3
F0.7868986713706491
sg4
F-1.483259665299441
sg5
F-0.4365275953447373
sg6
I00
ssS'HAYSLETT RODERICK J'
p267
(dp268
g3
F-1.119306791961304
sg4
F-1.483259665299441
sg5
F0.10175742697369161
sg6
I00
ssS'FUGH JOHN L'
p269
(dp270
g3
F-1.119306791961304
sg4
F0.37129731834040675
sg5
F-0.4365275953447373
sg6
I00
ssS'FALLON JAMES B'
p271
(dp272
g3
F1.0577117007859904
sg4
F0.6282134158485412
sg5
F0.2791128107797093
sg6
I00
ssS'KOENIG MARK E'
p273
(dp274
g3
F0.8695969032568684
sg4
F0.5765873948706169
sg5
F0.8114261979264733
sg6
I01
ssS'SAVAGE FRANK'
p275
(dp276
g3
F-1.119306791961304
sg4
F-1.483259665299441
sg5
F-0.4365275953447373
sg6
I00
ssS'IZZO LAWRENCE L'
p277
(dp278
g3
F-1.119306791961304
sg4
F0.7562630957776915
sg5
F-0.22511000916502127
sg6
I00
ssS'TILNEY ELIZABETH A'
p279
(dp280
g3
F0.7443859345072085
sg4
F0.5569942013353641
sg5
F-0.034836325516607265
sg6
I00
ssS'MARTIN AMANDA K'
p281
(dp282
g3
F-1.119306791961304
sg4
F0.7493849684424297
sg5
F-0.37714631290294515
sg6
I00
ssS'BUY RICHARD B'
p283
(dp284
g3
F0.9067353459427016
sg4
F0.7809443668031301
sg5
F0.4203693392122539
sg6
I00
ssS'GRAMM WENDY L'
p285
(dp286
g3
F-1.119306791961304
sg4
F-1.483259665299441
sg5
F-0.4365275953447373
sg6
I00
ssS'CAUSEY RICHARD A'
p287
(dp288
g3
F0.9223051860783196
sg4
F-1.483259665299441
sg5
F-0.2034015625843897
sg6
I01
ssS'TAYLOR MITCHELL S'
p289
(dp290
g3
F0.8468170086566752
sg4
F0.8153329071658711
sg5
F-0.43442791481371196
sg6
I00
ssS'DONAHUE JR JEFFREY M'
p291
(dp292
g3
F0.8893297455201158
sg4
F0.596730624462966
sg5
F0.20757222385041324
sg6
I00
ssS'GLISAN JR BEN F'
p293
(dp294
g3
F0.8468170086566752
sg4
F0.4910271388955491
sg5
F-0.22310279886665757
sg6
I01
ss.